(dp0
VSwahili
p1
c__builtin__
set
p2
((lp3
Vsimu
p4
aVwatoto
p5
aVvitu
p6
aVmengi
p7
aV0901006666
p8
aVmengine
p9
aVmwaya
p10
aVmlafu
p11
aVkukupa
p12
aVkutoka
p13
aVujumbe
p14
aVgavile
p15
aVidete
p16
aVkutumia
p17
aVjibu
p18
aVking
p19
aVshilingi
p20
aVsh200
p21
aVkuigiza
p22
aVwalambo
p23
aV15354
p24
aVwengine
p25
aVkike
p26
aVnaomba
p27
aVtuma
p28
aVkuhusu
p29
aVmpya
p30
aVvingi
p31
aVnimepata
p32
aVuhuru
p33
aVmweka
p34
aVwenye
p35
aVwenu
p36
aVinatusaidia
p37
aVumri
p38
aVjofela
p39
aVlipo
p40
aVulimwengu
p41
aVwapya
p42
aVapana
p43
aVmunafanya
p44
aVmwanaid
p45
aVnampenda
p46
aVwaswahili
p47
aVwangu
p48
aVyako
p49
aVmifugo
p50
aVasante
p51
aVbure
p52
aVwatanzania
p53
aVtalafa
p54
aVrehema
p55
aVwanasema
p56
aVmchemwa
p57
aV107
p58
aVnickson
p59
aVkagoje
p60
aVupate
p61
aVvifurushi
p62
aVlisemwalo
p63
aVvidogovidogo
p64
aVkilolo
p65
aVndio
p66
aVrambo
p67
aVndiy0
p68
aVmifuko
p69
aViringa
p70
aVmfuk0
p71
aVyosia
p72
aVunaowajua
p73
aVpoa
p74
aVmke
p75
aVlambo
p76
aVikawa
p77
aVmarafiki
p78
aVkubebea
p79
aVifakara
p80
aVtaarifa
p81
aVkulingana
p82
aVmwambola
p83
aV0901005555
p84
aVmfuko
p85
aVwababa
p86
aVifakala
p87
aVkifurushi
p88
aVnaitwa
p89
aVkusikiliza
p90
aVjirushesiku
p91
aVmufuko
p92
aVmatumizi
p93
aVlabda
p94
aVkuchagua
p95
aVupumbavu
p96
aVairtel
p97
aVkinachokufaa
p98
aV2richard
p99
aVtanzania
p100
aVomari
p101
aVjirushe
p102
aVdili
p103
aVsauti
p104
aVhawawezi
p105
aVpia
p106
aVkupata
p107
aVunaumuhimu
p108
aVjulias
p109
aVtuache
p110
aVsekondari
p111
aVnipo
p112
aVatie
p113
aVwamama
p114
aVkumsingizia
p115
aVufurahie
p116
aVmbona
p117
aVkafanya
p118
aVkikristo
p119
aVuislam
p120
aVmnawaacha
p121
aVpiga
p122
aVenyi
p123
aVmawaidha
p124
aVkupiga
p125
aVwakiume
p126
aVkizee
p127
aV0901004444
p128
aVmorogro
p129
aVyangu
p130
aVwatu
p131
aVnaweza
p132
aVvimeboreshwa
p133
aVkubadirisha
p134
aVkwasababu
p135
aVvya
p136
aVsasa
p137
aVhapana
p138
atp139
Rp140
sVPortuguese
p141
g2
((lp142
Vvila
p143
aVunica
p144
aVamenina
p145
aVunico
p146
aVfrondoza
p147
aVpreucupado
p148
aVamilton
p149
aVpauca
p150
aVleite
p151
aVisaia
p152
aVpedro
p153
aVnhamatanda
p154
aVmarcos
p155
aVcresc
p156
aVtais
p157
aVintelezente
p158
aVrei
p159
aVabra
p160
aVrapidamente
p161
aVsegund
p162
aVcrito
p163
aVdela
p164
aVcasamento
p165
aVfar
p166
aVfuturos
p167
aVmiquitaio
p168
aVvera
p169
aVfidelidade
p170
aVcasar
p171
aVcasa
p172
aVfala
p173
aVferiz
p174
aVcmo
p175
aVxtudr
p176
aVvelar
p177
aVextudo
p178
aVinexperad
p179
aVofichal
p180
aVcomprment
p181
aVmundial
p182
aVcompetentes
p183
aVmonecera
p184
aVopcao
p185
aVhora
p186
aVexperansa
p187
aVguita
p188
aVter
p189
aVvitimas
p190
aVnem
p191
aVmanthando
p192
aVdera
p193
aVdeles
p194
aVprqui
p195
aVdias
p196
aVvamos
p197
aVzondane
p198
aVtsussicana
p199
aVirmaos
p200
aVapaltil
p201
aVmndlane
p202
aVoproximo
p203
aVmeu
p204
aVsentistas
p205
aVpreparar
p206
aVmes
p207
aVstrong
p208
aVcidade
p209
aVtazaronda
p210
aVevitar
p211
aVaki
p212
aVfemea
p213
aVestrutura
p214
aVsocial
p215
aVdirectment
p216
aVet0do
p217
aVapartir
p218
aVbaptista
p219
aVoutra
p220
aVmairosse
p221
aVfamila
p222
aVenfermeiro
p223
aVobrigar
p224
aVhortencio
p225
aVcodado
p226
aVmetuchira
p227
aVmarido
p228
aVpur
p229
aVdificuldads
p230
aVbeatriz
p231
aVaut
p232
aVcontaminar
p233
aValberto
p234
aVcontinuar
p235
aVreceo
p236
aVrecei
p237
aVsituacao
p238
aVcomunual
p239
aVcelio
p240
aVcontinual
p241
aVpouco
p242
aVapedir
p243
aVmelhorar
p244
aVestes
p245
aVsustemtar
p246
aVnona
p247
aValeixo
p248
aVestdar
p249
aVera
p250
aVinsistir
p251
aV24hor
p252
aVbajaj
p253
aVfaz
p254
aVculad
p255
aVuai
p256
aVabensoada
p257
aVconcordar
p258
aVdeveria
p259
aVmorta
p260
aVanexa
p261
aVagina
p262
aVvelario
p263
aVmusica
p264
aVcasal
p265
aVconfia
p266
aVria
p267
aVmaioria
p268
aVleceo
p269
aVfracao
p270
aVeterna
p271
aVmurombodzi
p272
aVmesa
p273
aVsedo
p274
aVlar
p275
aVlhe
p276
aVmortes
p277
aVpassado
p278
aVgrande
p279
aVnimgue
p280
aVqueniasse
p281
aVcotinua
p282
aVsintoma
p283
aVsenhora
p284
aVfam
p285
aVsive
p286
aVsantinha
p287
aVnhamssongora
p288
aVjeque
p289
aVcunhadinhas
p290
aVgente
p291
aVaconselho
p292
aVigrja
p293
aVsobrinhos
p294
aVricardo
p295
aVmilhares
p296
aVxcola
p297
aVfim
p298
aVsisabe
p299
aVceu
p300
aVdesenvolda
p301
aVernesto
p302
aVeugenia
p303
aVxta
p304
aVmaquina
p305
aVdesgrassa
p306
aVcada
p307
aVpobre
p308
aVporta
p309
aVmensagem
p310
aVsida
p311
aVvidas
p312
aVfonte
p313
aVcarlos
p314
aVnava
p315
aVliga
p316
aVcorejo
p317
aVconcord
p318
aVdexe
p319
aVaida
p320
aV24h
p321
aVlocutor
p322
aVprocurar
p323
aVnossa
p324
aVtoda
p325
aVrelacao
p326
aVtodo
p327
aVnosso
p328
aVmuera
p329
aVnunca
p330
aVmodina
p331
aVnadica
p332
aVleceio
p333
aVzeremane
p334
aVtenesse_nhambondn
p335
aVtenesse_nhambondo
p336
aVpreguicosa
p337
aValguem
p338
aVbase
p339
aVentrar
p340
aVimprovisar
p341
aVbelarmino
p342
aVjeremias
p343
aVinok
p344
aVanselmo
p345
aVresorve
p346
aVate
p347
aVnhankulupini
p348
aVenlutar
p349
aVrinda
p350
aViso
p351
aVcomando
p352
aVnhamadze
p353
aVtivesse
p354
aVrecio
p355
aVgermias
p356
aVnhe
p357
aVforca
p358
aVvizinho
p359
aVmingo
p360
aVdona
p361
aVapenas
p362
aVunomwa
p363
aVenquanto
p364
aVmundo
p365
aVnome
p366
aVtraicoa
p367
aVcontra
p368
aVmabatiro
p369
aVinocentes
p370
aVporquie
p371
aVsegundo
p372
aVasituac
p373
aVdigo
p374
aVincur
p375
aVgraca
p376
aVernerto
p377
aVmatikiti
p378
aVfevereiro
p379
aVsta
p380
aVamanha
p381
aVmussa
p382
aVaccao
p383
aV5mb
p384
aVtsausicana
p385
aVfausto
p386
aValexamdre
p387
aVesta
p388
aVnovas
p389
aV867896571
p390
aVesto
p391
aVavida
p392
aVdedicando
p393
aVponder
p394
aVpara
p395
aVsoltucao
p396
aVlil
p397
aVponde
p398
aVviolar
p399
aVagraca
p400
aVtratado
p401
aVrecebeu
p402
aVtratada
p403
aVjudar
p404
aVmolher
p405
aVamae
p406
aVnivel
p407
aVinfeccoes
p408
aVamai
p409
aVpodera
p410
aVessa
p411
aVmario
p412
aVesse
p413
aVnhandoa
p414
aVsandra
p415
aVgrave
p416
aVauna
p417
aVclemente
p418
aVsua
p419
aVorfas
p420
aVviolenssa
p421
aVminha
p422
aVpermanece
p423
aVasua
p424
aVreusultam
p425
aVpricinpal
p426
aVsimplesmente
p427
aVvejamos
p428
aVdos
p429
aVbrinsiby
p430
aVreseio
p431
aVmahala
p432
aVpromete
p433
aVzacarias
p434
aVdassa
p435
aVentrega_las
p436
aVwiliamo
p437
aVvalito
p438
aVcristo
p439
aVtofito
p440
aVsustentar
p441
aVefetada
p442
aVimfecoes
p443
aVquem
p444
aVmenr
p445
aVrico
p446
aVwayne
p447
aVestara
p448
aVporqe
p449
aVsoluc
p450
aVabrasso
p451
aVporque
p452
aVcalhar
p453
aVpois
p454
aVporqui
p455
aVconvive
p456
aVjovem
p457
aVgrongosa
p458
aVmassamba
p459
aVmaridos
p460
aValfandica
p461
aVtratamento
p462
aVseu
p463
aVser
p464
aVvino
p465
aVfilnha
p466
aVmomentoa
p467
aVgorongosiano
p468
aVduma
p469
aVsem
p470
aVsel
p471
aVdeixando
p472
aVfilipe
p473
aVfazenda
p474
aVfraccao
p475
aVira
p476
aVdonate
p477
aVtndo
p478
aVempreendedora
p479
aVcobara
p480
aVprofssors
p481
aVfutura
p482
aVcula
p483
aVsolu
p484
aVlares
p485
aVxpeciais
p486
aVtardado
p487
aVresposta
p488
aVfalar
p489
aVanos
p490
aVconcluir
p491
aVcotlnuar
p492
aVpode
p493
aVfacer
p494
aVfilha
p495
aVcom
p496
aVsetembro
p497
aVcon
p498
aVagente
p499
aVdizem
p500
aVaumentala
p501
aVpessoas
p502
aVsalario
p503
aVdurante
p504
aVjogador
p505
aVsao
p506
aVfra
p507
aVgarntia
p508
aVntar
p509
aVdevia
p510
aVcrian
p511
aVabudala
p512
aVputo
p513
aVajudara
p514
aVidde
p515
aVsousabairro
p516
aVpista
p517
aVpedrito
p518
aVfechar
p519
aVant
p520
aVjaime
p521
aV50min
p522
aVencontrar
p523
aVmaxixe
p524
aVngue
p525
aVidad
p526
aVdpois
p527
aVgimo
p528
aVnhafuri
p529
aVdemor
p530
aVasunt
p531
aVanophele
p532
aVcausada
p533
aVbingala
p534
aVsantos
p535
aVfamlia
p536
aVremedio
p537
aVsemppre
p538
aVmortais
p539
aVreceio
p540
aVcuenda
p541
aVpurque
p542
aVsolucao
p543
aVpurqui
p544
aVdepede
p545
aVnio
p546
aVcezar
p547
aVbairro
p548
aVnia
p549
aVcandido
p550
aVbinze
p551
aVescolhe
p552
aVmestre
p553
aVesmael
p554
aVescolha
p555
aVnhmssngora
p556
aVlia
p557
aVpatronato
p558
aVrestaurar
p559
aVrecorrer
p560
aVpssa
p561
aVatuantes
p562
aVsimao
p563
aVinpreendedora
p564
aVpretndent
p565
aVepc
p566
aVjulio
p567
aVchore
p568
aVleiseio
p569
aVsalva
p570
aVlutar
p571
aVdomingos
p572
aVdistino
p573
aVsacrif
p574
aValternativa
p575
aVjose
p576
aVtrabalh0
p577
aVcur
p578
aVmandar
p579
aVxtudar
p580
aVajudam
p581
aVela
p582
aVcontinura
p583
aVsofrimento
p584
aVajudar
p585
aVtomas
p586
aVperigoso
p587
aValunas
p588
aVcotinuar
p589
aVbande
p590
aVaruna
p591
aVmenma
p592
aVcontinur
p593
aVpiorar
p594
aVbolso
p595
aVhumanas
p596
aVmiquicene
p597
aVentidads
p598
aVjota
p599
aVcontinua
p600
aVsebastiao
p601
aVgervasio
p602
aVfamilha
p603
aVwww
p604
aVcomados
p605
aVeducacao
p606
aVdepois
p607
aVsetebro
p608
aVcazari
p609
aVajinada
p610
aVmioda
p611
aVchamome
p612
aVpeq
p613
aVmuito
p614
aVpelo
p615
aVstrado
p616
aVuma
p617
aVprof
p618
aVpela
p619
aVcomtinua
p620
aVmuita
p621
aVqueremos
p622
aVaumenta
p623
aVmateus
p624
aVtarkinho
p625
aVsustentara
p626
aVjanita
p627
aVmuitax
p628
aVlobolo
p629
aVdirepente
p630
aVsalgar
p631
aVsanta
p632
aVsanto
p633
aVprecisa
p634
aVmorre
p635
aVainda
p636
aVdoeca
p637
aVprqi
p638
aVestranham
p639
aVdsenvolve
p640
aVamade
p641
aVbetinho
p642
aVbetinha
p643
aVjeito
p644
aVaerodromo
p645
aVbumark
p646
aVtobiasse
p647
aVsou
p648
aVmort
p649
aVnovo
p650
aVseifar
p651
aVhouver
p652
aVbangorangoma
p653
aVafazer
p654
aVajuda
p655
aVprocurams
p656
aValdeia
p657
aVsinao
p658
aVpodes
p659
aVpoder
p660
aVtenqui
p661
aVdados
p662
aVgeral
p663
aVesposa
p664
aVfora
p665
aVcntinuar
p666
aVseria
p667
aVfamilia
p668
aVqorqeu
p669
aVrapidameite
p670
aVgoverno
p671
aVviva
p672
aVreseu
p673
aVvive
p674
aVcomandos
p675
aVcontiando
p676
aVmudicua
p677
aVcio
p678
aVcontinuando
p679
aVpeso
p680
aVdinheiro
p681
aVporke
p682
aVajuda_las
p683
aVescrita
p684
aVseja
p685
aVlucilo
p686
aVmtd
p687
aVprblema
p688
aVseguro
p689
aVrogerio
p690
aVlusaca
p691
aVzidane
p692
aVencaminha_las
p693
aValuna
p694
aVcura
p695
aVhauna
p696
aVsofre
p697
aVfuro
p698
aVtarde
p699
aVtita
p700
aVsociais
p701
aVcadeia
p702
aVtara
p703
aVjudas
p704
aVvisto
p705
aVnao
p706
aVtard
p707
aVnas
p708
aVjona
p709
aVxtao
p710
aVnau
p711
aVdepos
p712
aVhumberto
p713
aVdireitos
p714
aVsecundaria
p715
aVcanda
p716
aVoptar
p717
aVfuncionario
p718
aVxavier
p719
aVavante
p720
aVproblema
p721
aVmarcelina
p722
aVaginada
p723
aVwaeze
p724
aVdomingo
p725
aVresseio
p726
aVconcordo
p727
aVabensoa
p728
aVabensoe
p729
aVaga
p730
aVpoucos
p731
aVxperanca
p732
aVprossimo
p733
aVsumaera
p734
aVtendo
p735
aVmorer
p736
aVnenhum
p737
aVessas
p738
aVdanca
p739
aVmedo
p740
aVmenor
p741
aVmenos
p742
aVpbreza
p743
aVcorpo
p744
aVcaitano
p745
aVpobreza
p746
aVzona
p747
aVver
p748
aVves
p749
aVcontacte
p750
aVelevado
p751
aVvee
p752
aVsuite
p753
aVvel
p754
aVvem
p755
aVolho
p756
aVerensto
p757
aVnhama
p758
aVproduem
p759
aVopiniao
p760
aVelas
p761
aVtenesse
p762
aValunos
p763
aVsalvador
p764
aVexistente
p765
aVjinada
p766
aVdia
p767
aVinacio
p768
aVtama
p769
aVirmazinhas
p770
aVrocotol
p771
aVtrasmetido
p772
aVpork
p773
aVneste
p774
aVjacinto
p775
aVclaudio
p776
aVporq
p777
aVporp
p778
aVcora
p779
aVeduaro
p780
aV00horasmas
p781
aVsintomas
p782
aVcelestina
p783
aVescola
p784
aVchota
p785
aVzacariasreceio
p786
aVvisinho
p787
aVmodlane
p788
aVmauricio
p789
aValegria
p790
aVvario
p791
aVmelhor
p792
aVluis
p793
aVzinho
p794
aVdisvio
p795
aVtver
p796
aVcoracao
p797
aVresidente
p798
aVchinha
p799
aVaminha
p800
aVprovocada
p801
aVbom
p802
aVenflenta
p803
aVboa
p804
aVbob
p805
aVobrigado
p806
aVchana
p807
aVrafael
p808
aVfransao
p809
aVestudari
p810
aVestudos
p811
aVmenina
p812
aVrefugio
p813
aVcasare
p814
aVpesar
p815
aVcasari
p816
aVfrasao
p817
aVidade
p818
aVtequi
p819
aVchegara
p820
aVarrepndimnto
p821
aVando
p822
aVcatique
p823
aVfel
p824
aVpatrocinador
p825
aVgero
p826
aVtodas
p827
aVines
p828
aVsort
p829
aVmarcheira
p830
aVmalax
p831
aVsra
p832
aVpequena
p833
aVpretendente
p834
aVamelia
p835
aVpalavra
p836
aVgarantir
p837
aVmagara
p838
aVraposo
p839
aVdistruind
p840
aVpremeturo
p841
aVchacanza
p842
aVparasitas
p843
aVdevecazari
p844
aVtirar
p845
aVestudante
p846
aVconstruir
p847
aVcaminho
p848
aVvoces
p849
aVsinta
p850
aVemcontrar
p851
aVabaixa
p852
aVsogra
p853
aVdiminui
p854
aVswega
p855
aVestudar
p856
aVideia
p857
aVsegudo
p858
aVcasada
p859
aVaument
p860
aVligar
p861
aVmorte
p862
aVsid
p863
aVpurk
p864
aVprqu
p865
aVdelas
p866
aVsio
p867
aVtiago
p868
aVsim
p869
aVmap
p870
aVmas
p871
aVatan
p872
aVprimeiro
p873
aVsoqui
p874
aVhemem
p875
aVdelcio
p876
aVinternato
p877
aVsexualmente
p878
aVisaque
p879
aVfars
p880
aVleva
p881
aVmal
p882
aVcorega
p883
aVdeva
p884
aVdeve
p885
aVruminha
p886
aVisso
p887
aVclasse
p888
aVdevo
p889
aVinveste
p890
aVestude
p891
aVconsientemente
p892
aVestuda
p893
aVbairo
p894
aVculpada
p895
aVreceamos
p896
aVturma
p897
aVa02
p898
aVigonore
p899
aVcambota
p900
aVfalado
p901
aVisaquel
p902
aVdoenc
p903
aVmais
p904
aV1classe
p905
aVsemple
p906
aVporquem
p907
aVesem
p908
aVtimoteo
p909
aVapobleza
p910
aVnervo
p911
aVenfentada
p912
aVdal
p913
aVcrase
p914
aVnada
p915
aVrepodio
p916
aVnoa
p917
aVdevem
p918
aVmorim
p919
aVdeves
p920
aVdar
p921
aVdas
p922
aVnhancuco
p923
aVnos
p924
aVimportante
p925
aVcazar
p926
aVsenhor
p927
aVfirmina
p928
aVdiscordo
p929
aVtera
p930
aVticha
p931
aVderepente
p932
aVmodo
p933
aVfenando
p934
aVsexuas
p935
aVcompromete
p936
aVespecial
p937
aVmulher
p938
aVassinate
p939
aVdesgraca
p940
aVhenrique
p941
aVfazer
p942
aVmata
p943
aVcausa
p944
aVleopoldina
p945
aVstela
p946
aVmuinga
p947
aVapatr
p948
aVflente
p949
aVseguranca
p950
aVtempo
p951
aVsabado
p952
aVfilhos
p953
aVque
p954
aVaceita
p955
aVqui
p956
aVemprego
p957
aVfrend
p958
aVzeca
p959
aVbitone
p960
aVpaulinoaraujo
p961
aVaos
p962
aVhoras
p963
aVnhamisongora
p964
aVanita
p965
aVnuma
p966
aVcossequencia
p967
aVkarlos
p968
aVhelton
p969
aVjesus
p970
aVmeninado
p971
aVdescaregar
p972
aVtomane
p973
aVmaulicio
p974
aVfica
p975
aVmadibe
p976
aVhaver
p977
aVmariana
p978
aVquando
p979
aVaceitar
p980
aVaestudar
p981
aVcrianca
p982
aVaestudal
p983
aVcudzo
p984
aVchitunga
p985
aVenkuando
p986
aVestodar
p987
aVpreta
p988
aVpromta
p989
aVbem
p990
aVbeb
p991
aVaumentar
p992
aV24horas
p993
aVsera
p994
aVfuturo
p995
aVkuand
p996
aVpra
p997
aVvachamuteco
p998
aVpssoa
p999
aVsab
p1000
aVprk
p1001
aVsembero
p1002
aVzuma
p1003
aVprq
p1004
aVmateu
p1005
aVacontinuar
p1006
aVmatucudur
p1007
aVdexar
p1008
aVsau
p1009
aVcherene
p1010
aVfalares
p1011
aVdeue
p1012
aVmalta
p1013
aVisto
p1014
aVluisa
p1015
aVcida
p1016
aVmulungu
p1017
aVdeus
p1018
aVganha
p1019
aVchaibande
p1020
aVestevao
p1021
aVpicada
p1022
aVnumero
p1023
aVestudo
p1024
aVbussete
p1025
aVamerico
p1026
aVpais
p1027
aVmedicamento
p1028
aVdxtino
p1029
aVunidad
p1030
aVjeruzarem
p1031
aV5classe
p1032
aVura
p1033
aVfalem
p1034
aVfrederico
p1035
aVquembo
p1036
aVazinanda
p1037
aVajudaria
p1038
aVtsuasicana
p1039
aVmuianga
p1040
aVsda
p1041
aVaraujo
p1042
aVpais_lucas
p1043
aVolha
p1044
aVconhecido
p1045
aVestoa
p1046
aVpreciso
p1047
aVadoenca
p1048
aVriqueza
p1049
aVdanito
p1050
aVensinar
p1051
aVqualquer
p1052
aVestou
p1053
aVmatcudur
p1054
aVdurant
p1055
aVpensam
p1056
aVouvir
p1057
aVcrime
p1058
aVterminam
p1059
aVcaero_matucudur
p1060
aVpidamente
p1061
aVperdoa
p1062
aVtudo
p1063
aVmercerina
p1064
aVmercado
p1065
aVinferior
p1066
aVbolingo
p1067
aVnela
p1068
aVfamilias
p1069
aVbernando
p1070
aVjuntamente
p1071
aVbensoal
p1072
aVderas
p1073
aVncia
p1074
aVortencia
p1075
aVrenseio
p1076
aV24hrs
p1077
aVlemcopecalam
p1078
aVbenedita
p1079
aVmalariaporque
p1080
aVhumano
p1081
aVubaleathu
p1082
aVliloca
p1083
aVtenh
p1084
aVanssim
p1085
aVestao
p1086
aVmaricheira
p1087
aVteng
p1088
aVtend
p1089
aVjencio
p1090
aVfavor
p1091
aVdestino
p1092
aVsiportar
p1093
aVmeninas
p1094
aVforcas
p1095
aVseple
p1096
aVkem
p1097
aVjos
p1098
aVpobresa
p1099
aVjox
p1100
aVdercio
p1101
aVtrabalhar
p1102
aVtobias
p1103
aVjoa
p1104
aVmapombue
p1105
aVcombater
p1106
aVcomo
p1107
aVtua
p1108
aVker
p1109
aVaqui
p1110
aVforme
p1111
aVxtdr
p1112
aVadmin
p1113
aVdesgracado
p1114
aVconseguir
p1115
aVeliase
p1116
aVporki
p1117
aVmarta
p1118
aVcomer
p1119
aVtmome
p1120
aVazinada
p1121
aVpor
p1122
aVformacao
p1123
aVacabar
p1124
aVenviando
p1125
aVmanencio
p1126
aVjohane
p1127
aVamigo
p1128
aVquene
p1129
aVtaimo
p1130
aVgondola
p1131
aVdispacho
p1132
aVtorsida
p1133
aVquia
p1134
aVcolega
p1135
aVtipezene
p1136
aVpessoa
p1137
aVvictorino
p1138
aVtsikir
p1139
aVploblemas
p1140
aVeduarde
p1141
aVprfssor
p1142
aVeduardo
p1143
aVrepende
p1144
aVdensenvolda
p1145
aVarvore
p1146
aVpoqui
p1147
aVcase
p1148
aVaugusto
p1149
aVprematuro
p1150
aVfortes
p1151
aVcaso
p1152
aVcvr
p1153
aVdenfend
p1154
aVcaronga
p1155
aVeio
p1156
aVhomem
p1157
aVresident
p1158
aVsalmo
p1159
aVofuturo
p1160
aVintegralment
p1161
aVmanha
p1162
aValuno
p1163
aVmesma
p1164
aVsust
p1165
aVtsuassica
p1166
aVmesmo
p1167
aVparte
p1168
aVesudar
p1169
aVpedindo
p1170
aVestrongomeni
p1171
aVriaporque
p1172
aVamosse
p1173
aVpai
p1174
aVtodos
p1175
aVadelino
p1176
aVnest
p1177
aVdirector
p1178
aVoportunidade
p1179
aVtsiquir
p1180
aVmovitel
p1181
aVresdnte
p1182
aVtenho
p1183
aVmbanzer
p1184
aVcosta
p1185
aVpoderia
p1186
aVginada
p1187
aVadorar
p1188
aVantonio
p1189
aVcriacao
p1190
aVcazada
p1191
aVapartr
p1192
aVnesse
p1193
aVtandike
p1194
aVpense
p1195
aVexcessivo
p1196
aVtipos
p1197
aVspeed
p1198
aVmudara
p1199
aV150sms
p1200
aVloja
p1201
aVvida
p1202
aVparar
p1203
aVgxtou
p1204
aVade
p1205
aVaproxima
p1206
aVdoce
p1207
aVhino
p1208
aVceleste
p1209
aVmoz
p1210
aVsonia
p1211
aVxadreque
p1212
aVraizes
p1213
aVterminar
p1214
aVvasco
p1215
aVteste
p1216
aVviver
p1217
aVasnada
p1218
aVdara
p1219
aVpossivel
p1220
aVdesa
p1221
aVdamiao
p1222
aVcasos
p1223
aVoseu
p1224
aVfernando
p1225
aVpropria
p1226
aVadamo
p1227
aVchico
p1228
aVpaulina
p1229
aVpaulino
p1230
aVapzar
p1231
aVante
p1232
aVadministrador
p1233
aVjoao
p1234
aVnhambondo
p1235
aVmaos
p1236
aVtsuassicana
p1237
aVsquante
p1238
aVest
p1239
aVmorere
p1240
aVhoje
p1241
aVdoen
p1242
aVmaezinha
p1243
aVrale
p1244
aVcsar
p1245
aV820015
p1246
aVlucas_nhambondo
p1247
aVcamilo
p1248
aVmanta
p1249
aVtda
p1250
aVentelegente
p1251
aVmantr
p1252
aVmassada
p1253
aVcondicoes
p1254
aVgaranto
p1255
aVmangra
p1256
aVenternato
p1257
aVmangara
p1258
aVtomo
p1259
aVtitos
p1260
aVtome
p1261
aVesses
p1262
aVchamo
p1263
aVcorrer
p1264
aVdique
p1265
aVabracar
p1266
aVgomes
p1267
aVmucodza
p1268
aVchegar
p1269
aVvingador
p1270
aVgorongosa
p1271
aVenxada
p1272
aVluno
p1273
aVtermine
p1274
aVresiste
p1275
aVmondlane
p1276
aVvai
p1277
aVprepare
p1278
aVcasado
p1279
aVsoflimento
p1280
aVjoaquim
p1281
aVinexperavel
p1282
aVgra
p1283
aVprogrm
p1284
aVtorna_ra
p1285
aVmbanze
p1286
aVpdem
p1287
aVleseou
p1288
aVultrapassar
p1289
aVsacrificio
p1290
aVconcruiri
p1291
aVconclua
p1292
aVraceio
p1293
aVpecebe
p1294
aVgora
p1295
aVespeciais
p1296
aVseis
p1297
aVpuqui
p1298
aVpque
p1299
aVdificel
p1300
aVtemq
p1301
aVconcluiu
p1302
aVpuque
p1303
aVdve
p1304
aVmiguel
p1305
aVagora
p1306
aVmanuel
p1307
aVmatucudor
p1308
aVseio
p1309
aVexpande
p1310
aVapesar
p1311
aVfeliz
p1312
aVdura
p1313
aV823892734
p1314
aVzeferino
p1315
aVatanasio
p1316
aVxadreqe
p1317
aVrapido
p1318
aVchiringa
p1319
aVtnha
p1320
aVbencoa
p1321
aVcoisa
p1322
aVnova
p1323
aVabstinencia
p1324
aVmbue
p1325
aVamalaria
p1326
aVseus
p1327
aVfutur
p1328
aVcabido
p1329
aVnhamissongora
p1330
aVpedir
p1331
aVcasando
p1332
aVfrancisco
p1333
aVchintuga
p1334
aVtrecelina
p1335
aVmouzinho
p1336
aVgravata
p1337
aVmente
p1338
aVnatalia
p1339
aVsempre
p1340
aVdoenca
p1341
aVmenorer
p1342
atp1343
Rp1344
sVDholuo
p1345
g2
((lp1346
Vnyaluo
p1347
aVkawuok
p1348
aVnyale
p1349
aVwabudhgo
p1350
aVfour
p1351
aVoraro
p1352
aVtiba
p1353
aVnegi
p1354
aVfredric
p1355
aVnego
p1356
aVhata
p1357
aVnega
p1358
aVnege
p1359
aVliech
p1360
aVokulu
p1361
aVsogo
p1362
aVodhiambokoyo
p1363
aVnyanam
p1364
aVkalausi
p1365
aVafarmer
p1366
aVodhis
p1367
aVkakaan
p1368
aVaneno
p1369
aVgounzaga
p1370
aVdorina
p1371
aVjacom
p1372
aVjacob
p1373
aVjolwanda
p1374
aVokoyo
p1375
aVokach
p1376
aVangazi
p1377
aVpuonj
p1378
aVokutah
p1379
aVsolution
p1380
aVkowna
p1381
aVatoby
p1382
aVobaya
p1383
aVvuvuzuela
p1384
aVomino
p1385
aVfuane
p1386
aVwalogo
p1387
aVndori
p1388
aVthdum
p1389
aVthiedhe
p1390
aVchew
p1391
aVmli
p1392
aVhore
p1393
aVjasoda
p1394
aVtoruakna
p1395
aVnait
p1396
aVmokwe
p1397
aVkohala
p1398
aVjomadongo
p1399
aVsecond
p1400
aVoyombo
p1401
aVafuayo
p1402
aVpande
p1403
aVadmire
p1404
aVobaka
p1405
aVasetho
p1406
aVjawelding
p1407
aVmogo
p1408
aVmapile
p1409
aVmbori
p1410
aVkwamundhi
p1411
aVever
p1412
aVjolendo
p1413
aVkuayo
p1414
aVmed
p1415
aVatomy
p1416
aVongi
p1417
aVaiga
p1418
aVonga
p1419
aVstudio
p1420
aVgreedy
p1421
aVdoro
p1422
aVnerwa
p1423
aVkudos
p1424
aVomak
p1425
aVkida
p1426
aVako
p1427
aVinyalo
p1428
aVgowi
p1429
aVtwakmikelono
p1430
aVkwergie
p1431
aVdalawa
p1432
aVkoja
p1433
aVbenter
p1434
aVmagambo
p1435
aVnakuru
p1436
aVjasaye
p1437
aVreagan
p1438
aVschooling
p1439
aVcounty
p1440
aVodero
p1441
aVpreasurer
p1442
aVokwalo
p1443
aVelmard
p1444
aVplot
p1445
aVdna
p1446
aVamosi
p1447
aVhephy
p1448
aVjodongo
p1449
aVmaen
p1450
aVtela
p1451
aVratta
p1452
aVmusic
p1453
aVpassport
p1454
aVadang
p1455
aVkabonyo
p1456
aV0mbija
p1457
aVwayuego
p1458
aVapar
p1459
aVbejemin
p1460
aVmusa
p1461
aVkamalisa
p1462
aVawiti
p1463
aVgijo
p1464
aValiwa
p1465
aVyudna
p1466
aVward
p1467
aVadwaro
p1468
aVkipsamwe
p1469
aVjakoyugi
p1470
aVnyawawano
p1471
aVnikitetemesga
p1472
aVakala
p1473
aVawinjgi
p1474
aVkoda
p1475
aVondith
p1476
aVonditi
p1477
aVowuogi
p1478
aVero
p1479
aVerk
p1480
aVwanka
p1481
aVwand
p1482
aVhousehold
p1483
aVgwassi
p1484
aVosieko
p1485
aVneema
p1486
aVwawinj
p1487
aVmachuok
p1488
aVeng
p1489
aVowilly
p1490
aVyvone
p1491
aVkanyolingo
p1492
aVjokoling
p1493
aVawnji
p1494
aVgate
p1495
aVmoska
p1496
aVlam
p1497
aVgimed
p1498
aVbeauty
p1499
aVsedy
p1500
aVfestus
p1501
aVminken
p1502
aVoywa
p1503
aVdongi
p1504
aVarch
p1505
aVjaley
p1506
aVoyuera
p1507
aVnyakungru
p1508
aVpadri
p1509
aVodila
p1510
aVlaventa
p1511
aVnyangero
p1512
aVkakola
p1513
aVhores
p1514
aVenter
p1515
aVnyangere
p1516
aVwecheni
p1517
aVgidi
p1518
aVjachien
p1519
aVsalon
p1520
aVnaman
p1521
aVkotieno
p1522
aVmaber
p1523
aVkailabwanda
p1524
aVruakna
p1525
aVhelena
p1526
aVmadiany
p1527
aVwuo
p1528
aVasaly
p1529
aVobambo
p1530
aValoice
p1531
aVpius
p1532
aVmatured
p1533
aVsonye
p1534
aVorua
p1535
aVoburu
p1536
aVlitein
p1537
aVdem
p1538
aVjarata
p1539
aVsadok
p1540
aVshameful
p1541
aVschools
p1542
aVsaulo
p1543
aVtreezer
p1544
aVnduru
p1545
aVankode
p1546
aVlucy
p1547
aVmahero
p1548
aVolidho
p1549
aVolima
p1550
aVdiana
p1551
aVsasta
p1552
aVgroup
p1553
aVjokan
p1554
aVosio
p1555
aVmilao
p1556
aVdawa
p1557
aVkowe
p1558
aVstealing
p1559
aVaredo
p1560
aV3years
p1561
aVborne
p1562
aVkuwe
p1563
aVgoi
p1564
aVapudo
p1565
aVombi
p1566
aVolueny
p1567
aVjanyahera
p1568
aVkasila
p1569
aVmayauru
p1570
aVobera
p1571
aVkamigoyono
p1572
aVjudith
p1573
aVgor
p1574
aVoyaer
p1575
aVluanda
p1576
aVluande
p1577
aVjirani
p1578
aVtangnedendi
p1579
aVngimau
p1580
aVtobende
p1581
aVakoth
p1582
aVoyungu
p1583
aVata
p1584
aVato
p1585
aVango
p1586
aVlwero
p1587
aVmoko
p1588
aVkaribu
p1589
aVisn
p1590
aVsoda
p1591
aVdamaris
p1592
aVngama
p1593
aVheavy2
p1594
aVaduma
p1595
aVrusinga
p1596
aVcharacters
p1597
aVolago
p1598
aVwabedo
p1599
aVgiko
p1600
aVkoduogo
p1601
aVdadangu
p1602
aVnyaur
p1603
aVdogo
p1604
aVnomia
p1605
aVtok
p1606
aVtom
p1607
aVapwoyo
p1608
aVquinta
p1609
aVrota
p1610
aVamallo
p1611
aVgodwince
p1612
aVitare
p1613
aVochara
p1614
aVkimirwa
p1615
aVzephenia
p1616
aVmerimela
p1617
aVhelen
p1618
aVgotkoduogo
p1619
aVziro
p1620
aVologo
p1621
aVoyuma
p1622
aVayueyo
p1623
aVopiso
p1624
aVmoloyo
p1625
aValila
p1626
aVkomak
p1627
aVkolum
p1628
aVoyuga
p1629
aVsabato
p1630
aVjamandas
p1631
aVmelvine
p1632
aVoyugi
p1633
aViwinjo
p1634
aVjongi
p1635
aVotemag
p1636
aVrae
p1637
aVmina
p1638
aVnyakuar
p1639
aVbejamin
p1640
aVcaleb
p1641
aVchako
p1642
aVobora
p1643
aVoketne
p1644
aVras
p1645
aVcodinata
p1646
aVadhi
p1647
aVseek
p1648
aVdivaz
p1649
aVdutote
p1650
aVmigawo
p1651
aVdivas
p1652
aVohand
p1653
aVonyoni
p1654
aVobonyo
p1655
aV0yugi
p1656
aVmijwek
p1657
aVsirkal
p1658
aVwinam
p1659
aVgibaro
p1660
aVopted
p1661
aVdok
p1662
aVflow
p1663
aVruwoth
p1664
aVochunowa
p1665
aVnyadhine
p1666
aVogara
p1667
aVseka
p1668
aVmakata
p1669
aVgladis
p1670
aVgouta
p1671
aVbomb
p1672
aVrading
p1673
aVsaga
p1674
aVlizz
p1675
aVlizy
p1676
aVariyo
p1677
aVisaya
p1678
aVnang
p1679
aVlize
p1680
aVlensa
p1681
aVukuweka
p1682
aVchalirs
p1683
aVowili
p1684
aVwadeya
p1685
aVnyagoko
p1686
aVnitulize
p1687
aVmbele
p1688
aVocs
p1689
aVobhiambo
p1690
aVandila
p1691
aVkaka
p1692
aVvannie
p1693
aValili
p1694
aVtrazy
p1695
aVmarombeyi
p1696
aVgogi
p1697
aValily
p1698
aVkue
p1699
aVobed
p1700
aVyamogi
p1701
aVkalemo
p1702
aVbas
p1703
aVjakobo
p1704
aVner
p1705
aVhello
p1706
aVbam
p1707
aVnyalego
p1708
aVokawo
p1709
aVongo
p1710
aVnyakesh
p1711
aVosiepa
p1712
aVosito
p1713
aVwakaw
p1714
aVosiepe
p1715
aVamanyo
p1716
aVrobby
p1717
aVkinyonga
p1718
aVbatoto
p1719
aVjakadete
p1720
aVchiemo
p1721
aVbest
p1722
aVmangoes
p1723
aVjakarota
p1724
aVobunge
p1725
aVnerea
p1726
aVnyakogiri
p1727
aVbaiskeli
p1728
aVakwayo
p1729
aVnyakenya
p1730
aVhera
p1731
aVringa
p1732
aVchode
p1733
aVonge
p1734
aVkaachiel
p1735
aVflexis
p1736
aVnewa
p1737
aVomo
p1738
aVokongo
p1739
aVkagintie
p1740
aVoracho
p1741
aVnamba
p1742
aVgiketo
p1743
aVyelow
p1744
aVipande
p1745
aVwachno
p1746
aVambuki
p1747
aVtingo
p1748
aVuni
p1749
aVuhero
p1750
aVkwe
p1751
aVmodhiera
p1752
aVjonyagowa
p1753
aVniya
p1754
aVtony
p1755
aVnyasaye
p1756
aVtiang
p1757
aVjaringa
p1758
aVjamadoido
p1759
aVyieke
p1760
aVothuno
p1761
aVolum
p1762
aVarombo
p1763
aVmakendo
p1764
aVeduawin
p1765
aVruako
p1766
aVdetrimental
p1767
aVtina
p1768
aVkajulu
p1769
aVmakende
p1770
aVenocka
p1771
aVawange
p1772
aVselin
p1773
aVokende
p1774
aVpheobe
p1775
aVdave
p1776
aVojwa
p1777
aVkoti
p1778
aVndhekz
p1779
aVcambi
p1780
aVdoto
p1781
aVonyi
p1782
aVdavi
p1783
aVtirus
p1784
aVatiang
p1785
aVabuto
p1786
aVcastro
p1787
aVnear
p1788
aVjaod
p1789
aVmedore
p1790
aVmathayo
p1791
aVgonja
p1792
aVvoice
p1793
aVmeshack
p1794
aVuganda
p1795
aVjese
p1796
aVwishers
p1797
aVcony
p1798
aVjoshwa
p1799
aVnineve
p1800
aVnyakinda
p1801
aVjared
p1802
aVjok
p1803
aVconi
p1804
aVwuodjiariyo
p1805
aVmachalo
p1806
aVodongo
p1807
aVgrown
p1808
aVdhi
p1809
aVpliz
p1810
aVniko
p1811
aVnikech
p1812
aVkaburu
p1813
aVolasi
p1814
aVocampo
p1815
aVonyoo
p1816
aVvegetable
p1817
aVnyogwanga
p1818
aVjakusa
p1819
aVahenda
p1820
aVayoo
p1821
aVlorhen
p1822
aVobaga
p1823
aVkit
p1824
aVkik
p1825
aVasugo
p1826
aVkin
p1827
aVosawa
p1828
aVsupper
p1829
aVbomet
p1830
aVingeng
p1831
aVtung
p1832
aVdadi
p1833
aVkomaki
p1834
aVpenina
p1835
aVdada
p1836
aVgame
p1837
aVtho
p1838
aVdady
p1839
aVitiyo
p1840
aVepi
p1841
aVayieko
p1842
aVromo
p1843
aVbando
p1844
aVodinpo
p1845
aVthumbe
p1846
aValima
p1847
aVafama
p1848
aVakwayi
p1849
aVagos
p1850
aVgode
p1851
aVshoun
p1852
aVkelo
p1853
aVruak
p1854
aVmagijokinda
p1855
aVeast
p1856
aVchalsea
p1857
aVakwa
p1858
aVjaseme
p1859
aVwuoyo
p1860
aVvin
p1861
aV233570
p1862
aVdonat
p1863
aVwayueyo
p1864
aVrespar
p1865
aVkoblo
p1866
aVonyal
p1867
aVkamariga
p1868
aVaram
p1869
aVkazi
p1870
aVtugogo
p1871
aVkristo
p1872
aVnight
p1873
aVamor
p1874
aVoberana
p1875
aVeema
p1876
aVjiks
p1877
aVabiero
p1878
aVsalim
p1879
aVjachiga
p1880
aVchuodho
p1881
aVdonald
p1882
aVgwono
p1883
aVmowero
p1884
aVasipo
p1885
aVkoro
p1886
aVwariure
p1887
aVich
p1888
aVabedo
p1889
aVedendi
p1890
aVoyudre
p1891
aVkamgere
p1892
aVnyamarwaka
p1893
aVmasani
p1894
aVkiliment
p1895
aVaduaro
p1896
aVorwa
p1897
aVchabera
p1898
aVndiela
p1899
aVambira
p1900
aVamimo
p1901
aVsifa
p1902
aVplz
p1903
aVnafuttali
p1904
aVpeep
p1905
aVpli
p1906
aVgeff
p1907
aVmalaki
p1908
aVeat
p1909
aVchoke
p1910
aVkatiba
p1911
aVmzike
p1912
aVabito
p1913
aVhorizon
p1914
aVoromo
p1915
aVoketch
p1916
aVores
p1917
aVotwekgo
p1918
aVnyapacho
p1919
aVjavan
p1920
aVsom
p1921
aVolewe
p1922
aVosom
p1923
aVjokinda
p1924
aVdewo
p1925
aVkatieno
p1926
aVomogo
p1927
aVgimose
p1928
aVjakachungo
p1929
aVgin
p1930
aVjang
p1931
aVgij
p1932
aVnyikwa
p1933
aVpako
p1934
aVform
p1935
aVmbasna
p1936
aVmakajanyuol
p1937
aVkindagitich
p1938
aVoyier
p1939
aVpiyo
p1940
aVsakwa
p1941
aVlawi
p1942
aVpesa
p1943
aVnyokana
p1944
aVkadel
p1945
aVmtu
p1946
aVenthnicty
p1947
aVagwambo
p1948
aVadori
p1949
aVsupa
p1950
aVsoja
p1951
aVnyakatolo
p1952
aVkochogo
p1953
aVerustus
p1954
aVescape
p1955
aVrangwe
p1956
aVisrael
p1957
aVperes
p1958
aVparwa
p1959
aVonesmus
p1960
aVmolo
p1961
aVperez
p1962
aVnakazi
p1963
aVtangne
p1964
aVkwbwai
p1965
aVoduma
p1966
aVoching
p1967
aVoyor
p1968
aVmbei
p1969
aVtij
p1970
aVochonjo
p1971
aVtochuno
p1972
aVminlizy
p1973
aVorato
p1974
aVmlanda
p1975
aVinego
p1976
aVprofessional
p1977
aVaruto
p1978
aVayoro
p1979
aVoyisa
p1980
aVholynes
p1981
aVleah
p1982
aVpusy
p1983
aVbedo
p1984
aVmangongo
p1985
aVkonyruok
p1986
aVminwa
p1987
aVobunga
p1988
aVpusi
p1989
aVoyoko
p1990
aVtimo
p1991
aVmikumu
p1992
aVdavas
p1993
aVnyanaya
p1994
aVopato
p1995
aVmily
p1996
aVkamadara
p1997
aVmanager
p1998
aVogochna
p1999
aVatibo
p2000
aVspidi
p2001
aVmilk
p2002
aVmwanamke
p2003
aVotamre
p2004
aVoyud
p2005
aVclarification
p2006
aVtosha
p2007
aVnamann
p2008
aVoludhe
p2009
aVgigo
p2010
aVohala
p2011
aVmakambudi
p2012
aVongiyo
p2013
aVonyallo
p2014
aVbrown
p2015
aVmakare
p2016
aVberly
p2017
aVjera
p2018
aVbret
p2019
aVabenjo
p2020
aVokwach
p2021
aVechokruok
p2022
aVsinogo
p2023
aVogol
p2024
aVobondo
p2025
aVroom
p2026
aVjastine
p2027
aVenok
p2028
aVwilkister
p2029
aVokado
p2030
aVinyal
p2031
aVakenya
p2032
aVyala
p2033
aVjowadwa
p2034
aVupper
p2035
aVkephas
p2036
aVduogo
p2037
aVmakagwa
p2038
aVkidiga
p2039
aVkisumo
p2040
aVanbende
p2041
aVkoker
p2042
aVonyisi
p2043
aVwagotich
p2044
aVonyalo
p2045
aVdinde
p2046
aVchunye
p2047
aVmapiyo
p2048
aVtusker
p2049
aV4lowing
p2050
aVkama
p2051
aVamala
p2052
aVmabinju
p2053
aVchunygi
p2054
aVdwaro
p2055
aVamalo
p2056
aVdenda
p2057
aVodagi
p2058
aVdendi
p2059
aVbange
p2060
aVkodu
p2061
aVagulu
p2062
aVhesbon
p2063
aVkindagititich
p2064
aVnyaka
p2065
aVeka
p2066
aVsunga
p2067
aVbondoo
p2068
aVexams
p2069
aV438
p2070
aVmargot
p2071
aVagulo
p2072
aVobugi
p2073
aVewaiting
p2074
aVramba
p2075
aVthrees
p2076
aVachuanyora
p2077
aV1st
p2078
aVkagin
p2079
aVdudi
p2080
aVngt
p2081
aVnyakoko
p2082
aVpere
p2083
aVkamnara
p2084
aVngode
p2085
aVskul
p2086
aVwolta
p2087
aVclub
p2088
aVmodng
p2089
aVoruba
p2090
aVdismas
p2091
aVooko
p2092
aVokonego
p2093
aVoduaro
p2094
aVndiege
p2095
aVjaranga
p2096
aVjorim
p2097
aVoor
p2098
aVjotend
p2099
aVjotene
p2100
aVsylvia
p2101
aVnyandori
p2102
aVemmauel
p2103
aVongoche
p2104
aVnyis
p2105
aVcap
p2106
aVajowi
p2107
aVgeyo
p2108
aVjudy
p2109
aVoriti
p2110
aVflo
p2111
aVmakini
p2112
aVgrowing
p2113
aVajigo
p2114
aVjondik
p2115
aVugenya
p2116
aVngat
p2117
aVbudebun
p2118
aVasiko
p2119
aVagent
p2120
aVoyengwe
p2121
aVpurity
p2122
aVnyaliech
p2123
aVdennis
p2124
aVngai
p2125
aVbegi
p2126
aVkanene
p2127
aVpiny
p2128
aVsilas
p2129
aVprezida
p2130
aVeconomy
p2131
aVochamo
p2132
aVlido
p2133
aVokeyo
p2134
aVochami
p2135
aVkambare
p2136
aVjaohangla
p2137
aVanyiewone
p2138
aVguyz
p2139
aVsuch
p2140
aVmak
p2141
aVmam
p2142
aVamunga
p2143
aVmauyoma
p2144
aVwasemolo
p2145
aVoriedo
p2146
aVogwajo
p2147
aVnyakabonyo
p2148
aVkura
p2149
aVtijega
p2150
aVmango
p2151
aVoonje
p2152
aVhassan
p2153
aVadek
p2154
aVugnj
p2155
aVjosphin
p2156
aVmagot
p2157
aVwadua
p2158
aVfwanae
p2159
aVojuang
p2160
aVcoly
p2161
aVngikni
p2162
aVakonogi
p2163
aVjocy
p2164
aVpokotugo
p2165
aVkanyo
p2166
aVttc
p2167
aVamoso
p2168
aVjapicha
p2169
aVbondo
p2170
aVachieng
p2171
aVakeyo
p2172
aVkamillambo
p2173
aVauma
p2174
aVenni
p2175
aVsomna
p2176
aVmosiko
p2177
aVcliment
p2178
aVotegno
p2179
aVaccording
p2180
aVmondi
p2181
aVfarmer
p2182
aVokela
p2183
aVjasino
p2184
aValokoyamo
p2185
aVlunch
p2186
aVdrilling
p2187
aVapeji
p2188
aVhalf
p2189
aVhall
p2190
aVchuade
p2191
aVservant
p2192
aVyuoth
p2193
aVkenyata
p2194
aVjomo
p2195
aVjatogo
p2196
aVjoma
p2197
aVmbuya
p2198
aVagin
p2199
aVkani
p2200
aVirine
p2201
aVsuba
p2202
aVukimwi
p2203
aVowuor
p2204
aVowuon
p2205
aVjowinjo
p2206
aVwachiew
p2207
aVapida
p2208
aVjatij
p2209
aVowino
p2210
aVgavana
p2211
aVlwanda
p2212
aVnyalo
p2213
aVjayadh
p2214
aVkenn
p2215
aVopener
p2216
aVpamela
p2217
aVwinjo
p2218
aVogambi
p2219
aVtyson
p2220
aVamigoh
p2221
aVomedore
p2222
aVoro
p2223
aVbarak
p2224
aVatice
p2225
aVestations
p2226
aVberil
p2227
aVora
p2228
aValphas
p2229
aVolandore
p2230
aVkaranja
p2231
aVabonyo
p2232
aVmotion
p2233
aVgordon
p2234
aVyesu
p2235
aVwaringa
p2236
aVnyakuwar
p2237
aVzam
p2238
aVnyironge
p2239
aVong
p2240
aVrevaet
p2241
aVwanyika
p2242
aVmbeyi
p2243
aVcassava
p2244
aVyie
p2245
aVosogo
p2246
aVjusfin
p2247
aVjeliz
p2248
aVbiti
p2249
aVagangu
p2250
aVekwanda
p2251
aVwawaria
p2252
aVodindo
p2253
aVyik
p2254
aVroseline
p2255
aVyamo
p2256
aVagango
p2257
aVojoru
p2258
aVbobi
p2259
aVdemocraticly
p2260
aVobingo
p2261
aVongao
p2262
aVosetimo
p2263
aVinjinia
p2264
aVldda
p2265
aValemne
p2266
aVogundo
p2267
aVkarata
p2268
aVswalimingi
p2269
aVmalami
p2270
aVwero
p2271
aVane
p2272
aVsan
p2273
aVsaa
p2274
aVmatek
p2275
aVpri
p2276
aVsae
p2277
aVvoices
p2278
aVlicy
p2279
aVloko
p2280
aVmidhiero
p2281
aVkevin
p2282
aVburnin
p2283
aVjakochia
p2284
aVawinjo
p2285
aVjabondo
p2286
aVaside
p2287
aVogoch
p2288
aVnungo
p2289
aVpaulin
p2290
aVodanga
p2291
aVperformance
p2292
aVurge
p2293
aVopposite
p2294
aVajaiga
p2295
aVjenipher
p2296
aVchieng
p2297
aVjwalago
p2298
aVsali
p2299
aVdorice
p2300
aVonego
p2301
aVespecially
p2302
aVnkuma
p2303
aVrispa
p2304
aVoguda
p2305
aVconstable
p2306
aVsaly
p2307
aVrarieda
p2308
aVlawy
p2309
aVobedi
p2310
aVmokuongo
p2311
aVnyairo
p2312
aVgimamana
p2313
aVobedo
p2314
aVmeshak
p2315
aVawuor
p2316
aVkende
p2317
aVusibadilishe
p2318
aVarita
p2319
aV0737146952
p2320
aVmakasembo
p2321
aVaseyuoro
p2322
aVobote
p2323
aVyuora
p2324
aVkonyo
p2325
aVtiyo
p2326
aVgangre
p2327
aVmikai
p2328
aVyogo
p2329
aVkesi
p2330
aVcoblo
p2331
aVodwoko
p2332
aVcaroline
p2333
aVmamna
p2334
aVoyie
p2335
aVger
p2336
aVjosinta
p2337
aVkitale
p2338
aVokelo
p2339
aVachieyo
p2340
aVgen
p2341
aVgem
p2342
aVkanisana
p2343
aVmowergi
p2344
aVotengo
p2345
aVlum
p2346
aVwuoi
p2347
aVotiende
p2348
aVnyabudho
p2349
aVoyomo
p2350
aVwuon
p2351
aVcithia
p2352
aVhasane
p2353
aVwiki
p2354
aVpoline
p2355
aViusogi
p2356
aVelida
p2357
aVmosoriot
p2358
aVerica
p2359
aVlincon
p2360
aVjanet
p2361
aVjaraha
p2362
aVotudore
p2363
aVruadhmogo
p2364
aVtololwe
p2365
aVawuok
p2366
aVwaya
p2367
aVjasindo
p2368
aVachar
p2369
aVowil
p2370
aVvelma
p2371
aVjaote
p2372
aVmathoth
p2373
aVminlolwe
p2374
aVelijah
p2375
aVjoba
p2376
aVslivia
p2377
aVamori
p2378
aV6yrs
p2379
aVdaktari
p2380
aVmoreso
p2381
aVjeremia
p2382
aVmana
p2383
aVigoyo
p2384
aVblasto
p2385
aVmane
p2386
aVcelebral
p2387
aVmang
p2388
aVabimbo
p2389
aVjakodada
p2390
aVamosojokanyangokot
p2391
aVmano
p2392
aVlumumba
p2393
aVkadho
p2394
aVjomba
p2395
aVctzns
p2396
aVsiia
p2397
aVpuonjruok
p2398
aVanto
p2399
aVaminda
p2400
aVpok
p2401
aVduto
p2402
aVnyatigo
p2403
aVlamo
p2404
aVkonya
p2405
aVmare
p2406
aVmarg
p2407
aVmara
p2408
aVamora
p2409
aVorum
p2410
aVwest
p2411
aVturker
p2412
aVmari
p2413
aVodhiambojainungo
p2414
aVmark
p2415
aVsesa
p2416
aVmaru
p2417
aVnyagem
p2418
aVsese
p2419
aVnyagowa
p2420
aVrebman
p2421
aVcaren
p2422
aVkaok
p2423
aVmaboyo
p2424
aVdhex
p2425
aVowunr
p2426
aVmaboya
p2427
aVjopuonj
p2428
aVmalela
p2429
aVaselal
p2430
aVsophy
p2431
aVjope
p2432
aVnyasayene
p2433
aVgingo
p2434
aVojosho
p2435
aVayiegi
p2436
aVolambo
p2437
aVbeatriece
p2438
aVnyabungu
p2439
aVbevaline
p2440
aVodhikatedokamano
p2441
aVdedicate
p2442
aVodiwuor
p2443
aVapako
p2444
aVobuya
p2445
aVkenya
p2446
aVpamella
p2447
aVworry
p2448
aVakwayone
p2449
aVpap
p2450
aVsami
p2451
aVpastar
p2452
aVnyaurunda
p2453
aVtodok
p2454
aVmigori
p2455
aVnyaurundi
p2456
aVwiya
p2457
aVanbe
p2458
aVsaff
p2459
aVsamy
p2460
aVjakoyo
p2461
aVisack
p2462
aVodhimbo
p2463
aVmasawa
p2464
aVstruggling
p2465
aVorindo
p2466
aVagesh
p2467
aVoimore
p2468
aVfinish
p2469
aVidong
p2470
aVdriver
p2471
aVting
p2472
aVnaphtali
p2473
aVkogola
p2474
aVmisambi
p2475
aVchemest
p2476
aVawuoro
p2477
aVkaan
p2478
aVjakakamega
p2479
aVcolins
p2480
aVneyane
p2481
aV6hrs
p2482
aVgibed
p2483
aVnjoga
p2484
aVhaina
p2485
aVorawo
p2486
aVkawan
p2487
aVpache
p2488
aVkakamega
p2489
aVimbo
p2490
aVtoby
p2491
aVosiany
p2492
aVrest
p2493
aVokonamba
p2494
aVmoneg
p2495
aVokawkura
p2496
aVosiano
p2497
aVngado
p2498
aVadhis
p2499
aVobar
p2500
aVotieko
p2501
aVkachieng
p2502
aVpile
p2503
aVrosy
p2504
aVombwede
p2505
aVtije
p2506
aVreal
p2507
aVdiechieng
p2508
aVnyarosiri
p2509
aVoffence
p2510
aVgedion
p2511
aVmou
p2512
aVkawuono
p2513
aVcaro
p2514
aVmon
p2515
aVmbita
p2516
aVmob
p2517
aVcbos
p2518
aVjodolo
p2519
aVpon
p2520
aVolore
p2521
aVisaka
p2522
aVkennedy
p2523
aVwachone
p2524
aVsinthia
p2525
aVmotegno
p2526
aVdiscarded
p2527
aVbenefit
p2528
aVogwedhi
p2529
aVduokopacho
p2530
aVreduced
p2531
aVchwogi
p2532
aVjoas
p2533
aVoluoch
p2534
aVkamara
p2535
aVkidhii
p2536
aVkoly
p2537
aVoloyogi
p2538
aVobongo
p2539
aVtable
p2540
aVduration
p2541
aVnyithinda
p2542
aVawinjou
p2543
aVkoli
p2544
aVnyakure
p2545
aVbenta
p2546
aVjakinyozi
p2547
aVtoti
p2548
aVtoto
p2549
aValwoch
p2550
aVbottlers
p2551
aVouta
p2552
aVtunya
p2553
aVogolo
p2554
aVmaok
p2555
aVogola
p2556
aVogole
p2557
aVmwai
p2558
aVobumba
p2559
aVkagwa
p2560
aVdispensary
p2561
aVvivian
p2562
aVjagem
p2563
aVketho
p2564
aVolok
p2565
aVjambaka
p2566
aVomato
p2567
aVwikimos
p2568
aVolos
p2569
aVraul
p2570
aVawino
p2571
aVanywola
p2572
aVadongo
p2573
aVasai
p2574
aVnyithindogo
p2575
aVdhiye
p2576
aVeruoth
p2577
aVwadew
p2578
aVbeshte
p2579
aVack
p2580
aVsherly
p2581
aVmamit
p2582
aVchon
p2583
aVobeyi
p2584
aVeskul
p2585
aVrevent
p2586
aVbarry
p2587
aVmixed
p2588
aVgodjope
p2589
aVtaras
p2590
aVstano
p2591
aValeme
p2592
aVonywera
p2593
aVbitty
p2594
aVhooot
p2595
aVkipandego
p2596
aVwadu
p2597
aVfwane
p2598
aVcharly
p2599
aVnikanyo
p2600
aVmoris
p2601
aVkibos
p2602
aVagody
p2603
aVcheme
p2604
aVkolly
p2605
aVlok
p2606
aVnyang
p2607
aVbshp
p2608
aVkondele
p2609
aVawacho
p2610
aVbude
p2611
aVudwa
p2612
aVdayana
p2613
aVmajengo
p2614
aVbunde
p2615
aVaoko
p2616
aVaherou
p2617
aVkahike
p2618
aVmiyaa
p2619
aVongalo
p2620
aVcolince
p2621
aVatimo
p2622
aVjadudi
p2623
aVmidega
p2624
aVwito
p2625
aVwazz
p2626
aVongele
p2627
aVagrey
p2628
aVojuok
p2629
aVlukio
p2630
aVifear
p2631
aV25yrs
p2632
aVokungu
p2633
aVotumba
p2634
aVolwongne
p2635
aVotudre
p2636
aVmunda
p2637
aVgone
p2638
aVgumbo
p2639
aVmamiyo
p2640
aVcbo
p2641
aVtshirt
p2642
aVmarach
p2643
aVnera
p2644
aVpolitics
p2645
aVsiaya
p2646
aVbishop
p2647
aVjopeng
p2648
aVyoo
p2649
aVmanotimre
p2650
aVyom
p2651
aVmanyien
p2652
aVjakakmenga
p2653
aVjenga
p2654
aVjakanyaluo
p2655
aVoyawre
p2656
aVowade
p2657
aVmbili
p2658
aVdenoh
p2659
aVcolly
p2660
aVowada
p2661
aVsiprose
p2662
aVabuki
p2663
aVogutu
p2664
aVtyras
p2665
aValbat
p2666
aVjatisat
p2667
aVchwade
p2668
aVabwao
p2669
aVketnaa
p2670
aVngwono
p2671
aVbooked
p2672
aVjawinjo
p2673
aVsalina
p2674
aVjoteneduto
p2675
aVmatiyo
p2676
aVadak
p2677
aVmass
p2678
aVbongisa
p2679
aVmasy
p2680
aVadag
p2681
aVdisp
p2682
aValo
p2683
aVjawuo
p2684
aVinungo
p2685
aVemili
p2686
aVdotcom
p2687
aVamosogite
p2688
aVkatena
p2689
aVjopiny
p2690
aVjariyo
p2691
aVsuna
p2692
aVptr
p2693
aVemily
p2694
aVmavo
p2695
aVlweta
p2696
aVwikimosh
p2697
aVjauriri
p2698
aVmadodhi
p2699
aVesiasa
p2700
aVosiepena
p2701
aVnyachieo
p2702
aVmandela
p2703
aVototo
p2704
aVyien
p2705
aVjakabuya
p2706
aVowiti
p2707
aVmakowone
p2708
aVsony
p2709
aVosiko
p2710
aVberryl
p2711
aVsteve
p2712
aVgruba
p2713
aVochung
p2714
aVosewacho
p2715
aVchupa
p2716
aVlarge
p2717
aVagak
p2718
aVkondo
p2719
aVduya
p2720
aVkabudho
p2721
aVjakaleo
p2722
aVanan
p2723
aVsano
p2724
aVsabun
p2725
aVchemelil
p2726
aVngeso
p2727
aVrata
p2728
aVlavolavo
p2729
aVmabele
p2730
aVndede
p2731
aVobala
p2732
aVodego
p2733
aVchege
p2734
aVwhat
p2735
aVwaland
p2736
aVoiro
p2737
aVnigiwuog
p2738
aVenambana
p2739
aVchali
p2740
aVabunga
p2741
aVkitere
p2742
aVchiwo
p2743
aVjaoda
p2744
aVaila
p2745
aVjaode
p2746
aVkabondo
p2747
aVkamica
p2748
aVaruako
p2749
aVfull
p2750
aVwacho
p2751
aVnyangen
p2752
aVnene
p2753
aVnyathiwa
p2754
aVjonam
p2755
aVwellwishers
p2756
aVndiga
p2757
aVjato
p2758
aV1amasiro
p2759
aVhawimaber
p2760
aVeschool
p2761
aVopaso
p2762
aVtagabi
p2763
aVolasy
p2764
aVlomg
p2765
aVaganyo
p2766
aVndogo
p2767
aVjatanga
p2768
aVabala
p2769
aVnarrow
p2770
aVnguonomar
p2771
aVkadogo
p2772
aVougo
p2773
aVkacha
p2774
aVmilenye
p2775
aVvio
p2776
aVdanga
p2777
aVsimba
p2778
aVmicheol
p2779
aVmosmaga
p2780
aVsilva
p2781
aVeye
p2782
aVpamipami
p2783
aVeyo
p2784
aVkatito
p2785
aVmuhanda
p2786
aVrafy
p2787
aVmoro
p2788
aVmora
p2789
aVodogi
p2790
aVogonda
p2791
aVadera
p2792
aVogeta
p2793
aVkanedhi
p2794
aVaize
p2795
aVbrighto
p2796
aVogwanjo
p2797
aVkawino
p2798
aVhurry
p2799
aVwadhi
p2800
aVtuak
p2801
aVnono
p2802
aVkuongi
p2803
aVndiii
p2804
aVokaka
p2805
aVsinyolo
p2806
aVdel
p2807
aVnind
p2808
aVatari
p2809
aVkadawa
p2810
aVnason
p2811
aVamolo
p2812
aVkech
p2813
aVann
p2814
aVjiowuog
p2815
aVakech
p2816
aVemilly
p2817
aVoywer
p2818
aVnyabondo
p2819
aVatang
p2820
aVjaduka
p2821
aVarambe
p2822
aVmaratipo
p2823
aVagogo
p2824
aVlavo
p2825
aVplant
p2826
aVigni
p2827
aVlina
p2828
aVwinie
p2829
aVsabina
p2830
aVokaw
p2831
aVbenyamin
p2832
aVmatugorome
p2833
aVombedo
p2834
aVopong
p2835
aVokal
p2836
aVokao
p2837
aVyudotuo
p2838
aVlimpopo
p2839
aVokwarona
p2840
aVnyalwak
p2841
aVjadwuongna
p2842
aVsusan
p2843
aVjaugenya
p2844
aVgrandy
p2845
aVregister
p2846
aVbugs
p2847
aVtomaoes
p2848
aVmigwena
p2849
aVrutek
p2850
aVabich
p2851
aVarich
p2852
aVav1an
p2853
aVthrough
p2854
aVotiya
p2855
aVmartich
p2856
aVnyakeyo
p2857
aVequator
p2858
aVasedonjo
p2859
aVnyarkajulu
p2860
aVawouro
p2861
aVarwako
p2862
aVasedonje
p2863
aVresort
p2864
aVgitiyo
p2865
aVomwadho
p2866
aVfwanane
p2867
aVpenj
p2868
aVkapiyo
p2869
aVodip
p2870
aVdibas
p2871
aVmaler
p2872
aVuono
p2873
aVmatibe
p2874
aVokonye
p2875
aVokimi
p2876
aVorodi
p2877
aVrombo
p2878
aVosiepna
p2879
aV20nambana
p2880
aVkanyingoro
p2881
aVjakimda
p2882
aVranen
p2883
aVachiel
p2884
aVodinga
p2885
aVdik
p2886
aVeva
p2887
aVsoyo
p2888
aVheavy
p2889
aVosako
p2890
aVmagi
p2891
aVokuma
p2892
aVokdwar
p2893
aVbende
p2894
aVbabawa
p2895
aVblues
p2896
aVhatari
p2897
aVleave
p2898
aVevy
p2899
aValphonce
p2900
aVasayi
p2901
aVmisiara
p2902
aVokawinjo
p2903
aVrabango
p2904
aVoccurs
p2905
aVjaplastic
p2906
aVcorporal
p2907
aVnyaranga
p2908
aVvioj
p2909
aVjusukuma
p2910
aVase
p2911
aVkachiel
p2912
aVodoyo
p2913
aVtomoloyo
p2914
aVnyaurudi
p2915
aVmogoyo
p2916
aVokinyo
p2917
aVmalari
p2918
aVoyang
p2919
aVkambudi
p2920
aVnyaseme
p2921
aVfruit
p2922
aVmadara
p2923
aVbenja
p2924
aVshikuku
p2925
aVding
p2926
aVtedo
p2927
aVmise
p2928
aVtibole
p2929
aVelder
p2930
aVwalok
p2931
aVjogo
p2932
aVbiuti
p2933
aVjoga
p2934
aVlewni
p2935
aVmamy
p2936
aVjep
p2937
aVkajos
p2938
aVkoa
p2939
aVyongo
p2940
aVjey
p2941
aVaa5
p2942
aVaa4
p2943
aVpakna
p2944
aVaa2
p2945
aVmama
p2946
aVogeda
p2947
aVraila
p2948
aVjosega
p2949
aVselline
p2950
aVmagunga
p2951
aVbudeboon
p2952
aVaa3
p2953
aVnedendi
p2954
aVjapur
p2955
aVpodniepach
p2956
aVkitumbe
p2957
aVhotel
p2958
aVoyaore
p2959
aVolweny
p2960
aVminena
p2961
aVawilo
p2962
aVakaw
p2963
aVashley
p2964
aVodede
p2965
aVndege
p2966
aVobama
p2967
aVguok
p2968
aVesamachon
p2969
aVkindly
p2970
aVanindo
p2971
aVochiew
p2972
aVonam
p2973
aVkapok
p2974
aVdani
p2975
aVkarow
p2976
aVopukore
p2977
aVmongee
p2978
aVdana
p2979
aVkiny
p2980
aVchagaik
p2981
aVongong
p2982
aVwasonga
p2983
aVsikuma
p2984
aVowenindo
p2985
aVurgently
p2986
aVphilli
p2987
aVapery
p2988
aVagen
p2989
aVmusalapi
p2990
aVkaro
p2991
aVnyongo
p2992
aVatm
p2993
aVcheck
p2994
aVrukia
p2995
aVode
p2996
aVlit
p2997
aVefi
p2998
aVlis
p2999
aVchapchap
p3000
aVliz
p3001
aVdemna
p3002
aVkasongo
p3003
aVkaa
p3004
aVpulot
p3005
aVamam
p3006
aVmoso
p3007
aVndhulu
p3008
aVkan
p3009
aVnyachiawo
p3010
aVkar
p3011
aVkaw
p3012
aVondoro
p3013
aVoderootumba
p3014
aVnitie
p3015
aVyawa
p3016
aVconstitution
p3017
aVngeny
p3018
aVgemkaumara
p3019
aVjadonat
p3020
aVgaby
p3021
aVnyasachi
p3022
aVkiboswa
p3023
aVancaro
p3024
aVkochunyno
p3025
aVmaketgi
p3026
aVaakala
p3027
aVnyasache
p3028
aVbeldine
p3029
aVwakili
p3030
aVgim
p3031
aVgolo
p3032
aViweye
p3033
aVochuo
p3034
aVodhi
p3035
aVtinde
p3036
aVochue
p3037
aVolang
p3038
aVmoseh
p3039
aVasoro
p3040
aVjohera
p3041
aVjainungo
p3042
aVuriyo
p3043
aVongoro
p3044
aVequity
p3045
aVodipo
p3046
aVnambanano
p3047
aVmabiro
p3048
aVnam
p3049
aVcholera
p3050
aVkibuye
p3051
aVtrees
p3052
aVomwandho
p3053
aVsila
p3054
aVbasement
p3055
aVhik
p3056
aVjagorofa
p3057
aVfama
p3058
aValoke
p3059
aVmrefu
p3060
aVomolla
p3061
aVnyakarabondi
p3062
aValoko
p3063
aVnijitwika
p3064
aVnyagoro
p3065
aVkokara
p3066
aVnyakongo
p3067
aVset
p3068
aVjakibugu
p3069
aVanyango
p3070
aVpodotin
p3071
aVjolony
p3072
aVtiyore
p3073
aVsipi
p3074
aVyalla
p3075
aVsamatin
p3076
aVmanywanda
p3077
aVmatin
p3078
aVbaro
p3079
aVilaro
p3080
aVmovin
p3081
aVkwuamundhi
p3082
aVawinji
p3083
aVpisi
p3084
aVmasafa
p3085
aVdebas
p3086
aValokie
p3087
aVasally
p3088
aVafwayone
p3089
aVsababu
p3090
aVkuom
p3091
aVnyathigi
p3092
aVnosigi
p3093
aVrite
p3094
aVnyiri
p3095
aVmiganda
p3096
aVcolliy
p3097
aVjagongo
p3098
aVkanyuol
p3099
aVgagra
p3100
aVericah
p3101
aVpesapesa
p3102
aVpami
p3103
aVachola
p3104
aVjasuna
p3105
aVads
p3106
aVlast
p3107
aVadipo
p3108
aVdomnick
p3109
aVsadam
p3110
aVnguono
p3111
aVepiny
p3112
aVopak
p3113
aVnyoracha
p3114
aVitamor
p3115
aVthoo
p3116
aVmegs
p3117
aVrisper
p3118
aVomosh
p3119
aVlasi
p3120
aVogweno
p3121
aVkodele
p3122
aVkwuom
p3123
aVollo
p3124
aVjeff
p3125
aVjokamien
p3126
aVgitimatek
p3127
aVadonjo
p3128
aVoliech
p3129
aVeabila
p3130
aVakuna
p3131
aVjairo
p3132
aVedala
p3133
aVjavo
p3134
aVunderage
p3135
aVogolne
p3136
aVdamu
p3137
aVochido
p3138
aVinear
p3139
aVdut
p3140
aVokulo
p3141
aVbenardo
p3142
aVram
p3143
aVmajaigni
p3144
aVfire
p3145
aVomiyo
p3146
aVmine
p3147
aVochoro
p3148
aVnyako
p3149
aViddy
p3150
aVtogi
p3151
aVjakowich
p3152
aVhigni
p3153
aVogingadan
p3154
aVcllr
p3155
aVogendo
p3156
aViya
p3157
aVoluonch
p3158
aVmoluor
p3159
aViyo
p3160
aVleya
p3161
aVogenda
p3162
aVgovernor
p3163
aVchiga
p3164
aVjackob
p3165
aVjokambudi
p3166
aVabor
p3167
aVaidha
p3168
aVatobi
p3169
aVosal
p3170
aVvoters
p3171
aVjiariyo
p3172
aVmandor
p3173
aVrit
p3174
aVris
p3175
aVgima
p3176
aVyath
p3177
aVkwayona
p3178
aVaudo
p3179
aVagingu
p3180
aVewi
p3181
aVewo
p3182
aVshirt
p3183
aVjaberna
p3184
aVajwala
p3185
aVjanguare
p3186
aVhomabay
p3187
aVodiero
p3188
aValuoch
p3189
aVodeka
p3190
aVnaogopa
p3191
aVsham
p3192
aVjaadha
p3193
aV891
p3194
aVobia
p3195
aVokando
p3196
aVscopion
p3197
aVcleaning
p3198
aValogo
p3199
aVkabisa
p3200
aVlower
p3201
aVkambi
p3202
aVyudo
p3203
aVmourine
p3204
aVnyocha
p3205
aVopenda
p3206
aVnyocho
p3207
aVoguche
p3208
aVknd
p3209
aVmoi
p3210
aVsango
p3211
aVsakari
p3212
aVlambwe
p3213
aVjnr
p3214
aVnichezee
p3215
aVmariwa
p3216
aVmanasse
p3217
aVgiwiye
p3218
aVevarlyne
p3219
aVjokaneya
p3220
aVotealuoch
p3221
aVafro
p3222
aVthieth
p3223
aVdwokna
p3224
aVouko
p3225
aVmandas
p3226
aVowawa
p3227
aVkasagam
p3228
aVkamano
p3229
aVbarack
p3230
aVtaban
p3231
aVomenda
p3232
aVkanitie
p3233
aVnyathikich
p3234
aVodeyo
p3235
aVmburu
p3236
aVjagangre
p3237
aVodhiadhia
p3238
aVmbura
p3239
aVodich
p3240
aVkageno
p3241
aVmarcy
p3242
aVjanyuol
p3243
aVsemo
p3244
aVbabela
p3245
aVmakokina
p3246
aVngato
p3247
aVseme
p3248
aVvipe
p3249
aVochakogo
p3250
aVmirefu
p3251
aVarthur
p3252
aVivan
p3253
aVnairobi
p3254
aVondege
p3255
aVmose
p3256
aVkosemaki
p3257
aVoteen
p3258
aVmakabongo
p3259
aVmageta
p3260
aVsomb
p3261
aVmawero
p3262
aVestage
p3263
aVahero
p3264
aVjakamera
p3265
aVjogi
p3266
aVkonsaga
p3267
aVmajango
p3268
aVoweyo
p3269
aVemakelo
p3270
aVojoo
p3271
aVoweye
p3272
aVruothgi
p3273
aVochopne
p3274
aVmitira
p3275
aVboka
p3276
aVbidii
p3277
aVkanjira
p3278
aVanna
p3279
aVmasogo
p3280
aVwithur
p3281
aVotimodend
p3282
aVombei
p3283
aVmayach
p3284
aVmosi
p3285
aVnyasiaya
p3286
aVnelly
p3287
aVombey
p3288
aVnyakarabundi
p3289
aVtaboo
p3290
aVodog
p3291
aVfaith
p3292
aVkaen
p3293
aViriyo
p3294
aVombehi
p3295
aVokumbe
p3296
aVhasan
p3297
aVfurut
p3298
aVbabana
p3299
aVidi
p3300
aVgiduto
p3301
aVexperince
p3302
aVadumai
p3303
aVtairas
p3304
aVida
p3305
aVajulo
p3306
aVjohny
p3307
aVinto
p3308
aVinspecta
p3309
aVatwan
p3310
aVogada
p3311
aVongielo
p3312
aVokonegore
p3313
aVatimokinda
p3314
aVakuwayo
p3315
aVanyal
p3316
aVneko
p3317
aVchenro
p3318
aVbruz
p3319
aVopenj
p3320
aVlony
p3321
aVmkt
p3322
aVsuit
p3323
aVokwacha
p3324
aVsinai
p3325
aVboya
p3326
aVndani
p3327
aVmakatajokafiri
p3328
aVboyo
p3329
aVchumbe
p3330
aVjacky
p3331
aVngolo
p3332
aVline
p3333
aVjunior
p3334
aVreen
p3335
aVjaposhomill
p3336
aVuta
p3337
aVmalit
p3338
aVgerliech
p3339
aVjamnazi
p3340
aVpolitic
p3341
aVmogik
p3342
aVnyithindo
p3343
aVkunga
p3344
aVoduor
p3345
aVuhanya
p3346
aVmarkajulu
p3347
aVlastborn
p3348
aVjamuhanda
p3349
aVokanga
p3350
aVgimiwacho
p3351
aVomena
p3352
aVnyathina
p3353
aVichako
p3354
aVsingle
p3355
aVnwona
p3356
aVfroot
p3357
aVmamwa
p3358
aV0702715175
p3359
aVoyula
p3360
aVkombe
p3361
aVtijena
p3362
aVtito
p3363
aVnai
p3364
aVtijeni
p3365
aVafamer
p3366
aVberyl
p3367
aVkamae
p3368
aVdepartment
p3369
aVkamam
p3370
aVnice
p3371
aVdala
p3372
aVwyckliffe
p3373
aVnaftal
p3374
aVenterprise
p3375
aVkora
p3376
aVakumu
p3377
aVobiro
p3378
aVjopin
p3379
aVrambira
p3380
aVokanyal
p3381
aVmomiyo
p3382
aVleny
p3383
aVolale
p3384
aVmalandre
p3385
aVkapuoyo
p3386
aValugah
p3387
aVomona
p3388
aVchemosit
p3389
aVnyikech
p3390
aVenmar
p3391
aVfresh
p3392
aVwatim
p3393
aVjatishat
p3394
aVkanam
p3395
aVcynthia
p3396
aVmudho
p3397
aVjimo
p3398
aVjakomenya
p3399
aVkata
p3400
aVnyoro
p3401
aVedy
p3402
aVombeyi
p3403
aVadmited
p3404
aVjunia
p3405
aVmigi
p3406
aVongus
p3407
aVmangeny
p3408
aVsadhuru
p3409
aVnyawara
p3410
aVjehova
p3411
aVmeya
p3412
aVponge
p3413
aVjakob
p3414
aVasuma
p3415
aVfond
p3416
aVjagweno
p3417
aVepuodho
p3418
aVgina
p3419
aVragalo
p3420
aVjakom
p3421
aVkogno
p3422
aVkarota
p3423
aVjokanyaluo
p3424
aVclement
p3425
aVtang
p3426
aVjarodi
p3427
aVjoel
p3428
aVbabwa
p3429
aVolal
p3430
aVolam
p3431
aVaswa
p3432
aVjafres
p3433
aVimoso
p3434
aVkobiero
p3435
aVnbange
p3436
aVwandasi
p3437
aVrach
p3438
aVkaliech
p3439
aValango
p3440
aVkidogo
p3441
aVodoyokankiwa
p3442
aVorot
p3443
aVkakelo
p3444
aVjaurunda
p3445
aVchomo
p3446
aVoalo
p3447
aVodm
p3448
aVothiedhe
p3449
aVooro
p3450
aVoda
p3451
aVrrr
p3452
aVpoul
p3453
aVanton
p3454
aVmogenowa
p3455
aVfadhe
p3456
aVeyor
p3457
aVodemba
p3458
aVkorua
p3459
aVbiro
p3460
aVdaraja
p3461
aVlutheran
p3462
aVjaklamo
p3463
aViketna
p3464
aVleo
p3465
aVbodi
p3466
aVfollowing
p3467
aVles
p3468
aVbodo
p3469
aVoloo
p3470
aVmasinde
p3471
aVnyanango
p3472
aVgreat
p3473
aVonyoso
p3474
aVpheny
p3475
aVdioces
p3476
aVduncan
p3477
aVcalvin
p3478
aVdongruok
p3479
aVmicah
p3480
aVnyadulo
p3481
aVonyango
p3482
aVgeng
p3483
aValois
p3484
aVorian
p3485
aVsheila
p3486
aVsiasa
p3487
aVavocados
p3488
aVmatieko
p3489
aVobach
p3490
aVjacha
p3491
aVgimoro
p3492
aVadhaya
p3493
aVasan
p3494
aVnyamori
p3495
aVjauma
p3496
aVasam
p3497
aVvipi
p3498
aVokana
p3499
aVochar
p3500
aVjokama
p3501
aVawinj
p3502
aVoruko
p3503
aVgimary
p3504
aVasahi
p3505
aVpuonje
p3506
aVisak
p3507
aVrich
p3508
aVirito
p3509
aVotho
p3510
aVkiost
p3511
aVkodero
p3512
aVawillo
p3513
aVnilikuomba
p3514
aVyongoh
p3515
aVabebo
p3516
aVorono
p3517
aVlavatsa
p3518
aVkanyimach
p3519
aVjakadem
p3520
aVsalad
p3521
aVjipanoran
p3522
aVmabor
p3523
aVopog
p3524
aVmamawa
p3525
aVkakajey
p3526
aVmadwaro
p3527
aVthim
p3528
aVchrch
p3529
aVonguon
p3530
aVjarech
p3531
aVkoso
p3532
aVtau
p3533
aVgirito
p3534
aVongei
p3535
aVjen
p3536
aVdaki
p3537
aVongeyi
p3538
aVmilicent
p3539
aVchoo
p3540
aVkenna
p3541
aVdomnik
p3542
aVminya
p3543
aVphelix
p3544
aVnyiminena
p3545
aVdomnic
p3546
aVoyieyo
p3547
aVmakawudo
p3548
aVberrel
p3549
aVgwara
p3550
aVsin
p3551
aV0717
p3552
aVkobudho
p3553
aVokiri
p3554
aVkenedi
p3555
aVmamin
p3556
aVoyaya
p3557
aVbagdal
p3558
aViren
p3559
aVnyangao
p3560
aVofunmlia
p3561
aVkenyans
p3562
aVbursary
p3563
aVanyuongi
p3564
aVnejo
p3565
aVrealized
p3566
aVagwingi
p3567
aVwiu
p3568
aVlinet
p3569
aVmartine
p3570
aVwayasi
p3571
aVnancy
p3572
aVchiem
p3573
aVchien
p3574
aVongili
p3575
aVivone
p3576
aVaturo
p3577
aVnyamera
p3578
aVnyause
p3579
aVanankaankiwa
p3580
aVoginga
p3581
aVwarren
p3582
aVkasure
p3583
aV23yrs
p3584
aVdimba
p3585
aVranguma
p3586
aVanotis
p3587
aVosalla
p3588
aVorange
p3589
aVobola
p3590
aVimora
p3591
aV2012
p3592
aVdad
p3593
aVnadi
p3594
aVjunction
p3595
aVkorwenje
p3596
aVwichlum
p3597
aVgimoni
p3598
aVoranges
p3599
aVdak
p3600
aVrwakna
p3601
aVdav
p3602
aVfia
p3603
aVema
p3604
aVsamoro
p3605
aVjomabeyo
p3606
aVmagrate
p3607
aVjapuonj
p3608
aVakulo
p3609
aVawage
p3610
aVadienge
p3611
aVbacho
p3612
aVnikare
p3613
aVkericho
p3614
aVrayo
p3615
aVsande
p3616
aVnyisi
p3617
aVweyi
p3618
aVsiany
p3619
aVdorca
p3620
aVionge
p3621
aVous
p3622
aVwawinji
p3623
aVlolwd
p3624
aVwakonye
p3625
aVrep
p3626
aVrev
p3627
aVankephas
p3628
aVkinyozi
p3629
aVkamlambo
p3630
aVvct
p3631
aVwer
p3632
aVmati
p3633
aVunda
p3634
aVecd
p3635
aVwach
p3636
aVmolly
p3637
aViebc
p3638
aVaviko
p3639
aVguya
p3640
aVnyamrerwa
p3641
aVsunsiro
p3642
aVtach
p3643
aVchilla
p3644
aVbeatrece
p3645
aVdichwo
p3646
aVelector
p3647
aVivon
p3648
aVosala
p3649
aVkanyathi
p3650
aVnyawasi
p3651
aVlinnet
p3652
aVsouth
p3653
aVkulalane
p3654
aVevans
p3655
aVmaromo
p3656
aVsack
p3657
aVtairus
p3658
aVbudho
p3659
aVkadiemo
p3660
aVboza
p3661
aVnigiwinjo
p3662
aVjaoko
p3663
aVmachwogi
p3664
aVapelly
p3665
aVkoturo
p3666
aVbe4
p3667
aVnyal
p3668
aVatoti
p3669
aVouya
p3670
aVnyak
p3671
aVawidow
p3672
aVnyaa
p3673
aVkansila
p3674
aVmanyakelo
p3675
aVanene
p3676
aVudi
p3677
aVoga
p3678
aVamosou
p3679
aVben
p3680
aVnegowa
p3681
aVhecheki
p3682
aVojwang
p3683
aVber
p3684
aVbeuty
p3685
aVrfsl
p3686
aVkosomo
p3687
aVtabu
p3688
aVakuru
p3689
aVseuen
p3690
aVnorth
p3691
aVtido
p3692
aVjadu
p3693
aVmanane
p3694
aVatic
p3695
aVgidion
p3696
aVmilly
p3697
aVmakaudo
p3698
aVmia
p3699
aVlilo
p3700
aVlili
p3701
aVmig
p3702
aVatis
p3703
aVakach
p3704
aVmargy
p3705
aVmit
p3706
aVngano
p3707
aVjonyakongo
p3708
aVjasukari
p3709
aVemly
p3710
aVadier
p3711
aVchiro
p3712
aVtahifa
p3713
aVmaurine
p3714
aVabongo
p3715
aVwht
p3716
aVkamagambo
p3717
aVsinyanya
p3718
aVoyamo
p3719
aVkulala
p3720
aVkamodi
p3721
aVsally
p3722
aVjamawira
p3723
aVolwenya
p3724
aV0dhare
p3725
aVuru
p3726
aVfundi
p3727
aVochillo
p3728
aVahinya
p3729
aVappostle
p3730
aVrambara
p3731
aV0707
p3732
aVsansiro
p3733
aVkoni
p3734
aVdorothi
p3735
aVomela
p3736
aVmiyo
p3737
aVbring
p3738
aVmiwa
p3739
aVjomamosago
p3740
aVndikruok
p3741
aVgori
p3742
aVawinjie
p3743
aVtarik
p3744
aVstaff
p3745
aVelly
p3746
aVusenge
p3747
aVndilo
p3748
aVtire
p3749
aVeduwin
p3750
aVplanted
p3751
aVcandidates
p3752
aVjak
p3753
aVmuga
p3754
aVnyakojula
p3755
aVkantie
p3756
aVlocal
p3757
aVjaber
p3758
aVgodiochieng
p3759
aVjafrut
p3760
aVmageno
p3761
aVbediie
p3762
aVemasani
p3763
aVkadete
p3764
aVmolem
p3765
aVketna
p3766
aVekara
p3767
aVanandi
p3768
aVjaso
p3769
aVlalo
p3770
aVmapenzi
p3771
aVwetena
p3772
aVmarried
p3773
aVwamor
p3774
aVopande
p3775
aVjayala
p3776
aVamoyo
p3777
aVnamlolwe
p3778
aVjatelo
p3779
aVwanyama
p3780
aVaduera
p3781
aVngima
p3782
aVmawinjo
p3783
aVodong
p3784
aVjiranda
p3785
aVsospeter
p3786
aVmiek
p3787
aVapenjo
p3788
aVeofis
p3789
aVabudho
p3790
aVtene
p3791
aVogodo
p3792
aVusigu
p3793
aVebudho
p3794
aVayieye
p3795
aVkefa
p3796
aVtimbe
p3797
aVemail
p3798
aVjanes
p3799
aVkel
p3800
aVbed
p3801
aVmelda
p3802
aVauko
p3803
aVjob
p3804
aVjaneopiyo
p3805
aVmerry
p3806
aVjasega
p3807
aVjoj
p3808
aVket
p3809
aVachiedh
p3810
aVodeny
p3811
aVjoko
p3812
aVkatedo
p3813
aVmamaval
p3814
aVnyara
p3815
aVkapkatet
p3816
aVayiego
p3817
aVjoka
p3818
aVnyare
p3819
aVmaseno
p3820
aVramo
p3821
aViwuok
p3822
aVwear
p3823
aVmopong
p3824
aVjamhuri
p3825
aVonyuera
p3826
aVkingi
p3827
aVgita
p3828
aVmaliet
p3829
aVkinga
p3830
aVdosila
p3831
aVkamrongo
p3832
aVminevon
p3833
aVincest
p3834
aVoria
p3835
aVjohana
p3836
aVmadanje
p3837
aVtieng
p3838
aVrumo
p3839
aVcatherin
p3840
aVondijo
p3841
aVcommissoner
p3842
aVjotelo
p3843
aVyan
p3844
aVjabando
p3845
aVemmaculet
p3846
aVlavenda
p3847
aVondeto
p3848
aVoti
p3849
aVwatiuru
p3850
aVjiduto
p3851
aVmika
p3852
aVjatshirt
p3853
aVchuor
p3854
aVogilo
p3855
aVlavester
p3856
aVmamagi
p3857
aVkimari
p3858
aVdedem
p3859
aVchaly
p3860
aVoliewo
p3861
aVkanyakla
p3862
aVkopingo
p3863
aVkitieko
p3864
aVataka
p3865
aVsirikal
p3866
aVkaponi
p3867
aVjapeng
p3868
aVnyamila
p3869
aVserre
p3870
aVmsalape
p3871
aVlichma
p3872
aVsiruti
p3873
aVkeyo
p3874
aVkaluwre
p3875
aVthum
p3876
aVmarmamboleo
p3877
aVnyakach
p3878
aVgeta
p3879
aVochop
p3880
aVjaboka
p3881
aVsadhru
p3882
aVorumo
p3883
aVdickens
p3884
aVmigwa
p3885
aVauonda
p3886
aVlookin
p3887
aVsuzy
p3888
aVbala
p3889
aVmze
p3890
aVnade
p3891
aVdaudi
p3892
aVosomo
p3893
aVjaohand
p3894
aVonyaloko
p3895
aVjwala
p3896
aVagotich
p3897
aVcenter
p3898
aVgiwinj
p3899
aVotaro
p3900
aVwelo
p3901
aVofwenyo
p3902
aVrispar
p3903
aVschl
p3904
aVobuongo
p3905
aVkamser
p3906
aVngware
p3907
aVdhitedo
p3908
aVnguno
p3909
aVoyaw
p3910
aVbananas
p3911
aVhali
p3912
aValedi
p3913
aVjakabonyo
p3914
aVoswe
p3915
aVjaro
p3916
aVlwala
p3917
aVotas
p3918
aVpapohapo
p3919
aVwinnie
p3920
aVjaduong
p3921
aVkamago
p3922
aVsmart
p3923
aVoketi
p3924
aVodiochieng
p3925
aVadhiambo
p3926
aVmachielo
p3927
aVoloko
p3928
aVkoyoo
p3929
aVkagan
p3930
aVokite
p3931
aVfive
p3932
aVfiyar
p3933
aVstanbradox
p3934
aVjasuba
p3935
aVkagimaki
p3936
aVoteni
p3937
aVnyarerwa
p3938
aVlilian
p3939
aVemillymin
p3940
aVondikre
p3941
aVoluonga
p3942
aV4me
p3943
aVruoth
p3944
aVawasi
p3945
aVwuodkwaru
p3946
aVokuta
p3947
aVopere
p3948
aVobado
p3949
aVchurch
p3950
aVimiya
p3951
aVoneko
p3952
aVkits
p3953
aVmiyago
p3954
aVsammy
p3955
aVhappens
p3956
aVwendi
p3957
aVwende
p3958
aVdago
p3959
aVagutu
p3960
aVifuwana
p3961
aVdoes
p3962
aVkwee
p3963
aVmigingo
p3964
aVeso
p3965
aVjoguda
p3966
aVenuf
p3967
aVsadaka
p3968
aVidlers
p3969
aVchally
p3970
aVokweso
p3971
aVmillicent
p3972
aVdhano
p3973
aVtijenga
p3974
aVhosp
p3975
aVpasta
p3976
aVfeare
p3977
aViseruenyo
p3978
aVbigben
p3979
aVndazi
p3980
aVwadaguru
p3981
aVsister
p3982
aVndo
p3983
aVnoyudo
p3984
aVroslida
p3985
aVasha
p3986
aValuore
p3987
aVmourice
p3988
aVragengni
p3989
aVobiero
p3990
aVjalamo
p3991
aVgiereru
p3992
aVkwach
p3993
aVbeen
p3994
aVregistration
p3995
aVoketho
p3996
aVochanda
p3997
aVemakoro
p3998
aVawuonda
p3999
aVjayalo
p4000
aVwakajulu
p4001
aVwasee
p4002
aVkapuonja
p4003
aVsansir
p4004
aVogoyo
p4005
aVkanyakoo
p4006
aVfrustration
p4007
aVogoya
p4008
aVmahaya
p4009
aVondiek
p4010
aVaduoko
p4011
aVfundy
p4012
aVoseromo
p4013
aVadwuoko
p4014
aVbun
p4015
aVnyaugenya
p4016
aVmargi
p4017
aVaduwa
p4018
aVdavide
p4019
aVfunde
p4020
aVdhine
p4021
aVnyakwar
p4022
aVwuora
p4023
aVndalo
p4024
aVwiliam
p4025
aVmwuonyo
p4026
aVywore
p4027
aVcella
p4028
aVngando
p4029
aVjatisirt
p4030
aVadhiyadhiya
p4031
aVpii
p4032
aVpio
p4033
aVowego
p4034
aVanji
p4035
aVbeatrice
p4036
aVndheckz
p4037
aVkimwonyo
p4038
aVosolo
p4039
aVolwalo
p4040
aVisaack
p4041
aVcampus
p4042
aVodngo
p4043
aVnambana
p4044
aVeyamo
p4045
aVtyme
p4046
aVkokal
p4047
aVother
p4048
aVmagret
p4049
aVboon
p4050
aVkanisa
p4051
aVbooker
p4052
aVolili
p4053
aVaringo
p4054
aVkindu
p4055
aVwanje
p4056
aVdhod
p4057
aVtokod
p4058
aVseta
p4059
aVmargaret
p4060
aVkinde
p4061
aVkepher
p4062
aVgwayo
p4063
aVmiyowa
p4064
aVkend
p4065
aVkanyaluo
p4066
aVadiera
p4067
aVapuonjo
p4068
aVagood
p4069
aVjenifa
p4070
aVuriri
p4071
aVouma
p4072
atp4073
Rp4074
sVLuganda
p4075
g2
((lp4076
Vejjaga
p4077
aVekisanje
p4078
aVssempijja
p4079
aVlwengo
p4080
aVgange
p4081
aVkato
p4082
aVgujja
p4083
aVbuddu
p4084
aVgayinza
p4085
aVtewali
p4086
aVabantu
p4087
aVkibuli
p4088
aVbeekalaze
p4089
aVmasaka
p4090
aVlure
p4091
aVssemugenyi
p4092
aVndabye
p4093
aVkwo
p4094
aVnyendo
p4095
aVejinja
p4096
aVyudaya
p4097
aVnanyoonga
p4098
aVfaer
p4099
aVkateregga
p4100
aVssekalo
p4101
aVkalisizo
p4102
aVmulwadde
p4103
aVtalina
p4104
aVembuto
p4105
aVbatandika
p4106
aVomusujja
p4107
aVmugoya
p4108
aVstanley
p4109
aVokuzala
p4110
aVbangabye
p4111
aVsedric
p4112
aVtusuubira
p4113
aVmusujja
p4114
aVebijugo
p4115
aVmusisi
p4116
aVdagala
p4117
aVndagire
p4118
aVnti
p4119
aVbwe
p4120
aVnga
p4121
aVkaggogwa
p4122
aVrigan
p4123
aVnyinza
p4124
aVkavuuze
p4125
aVbangi
p4126
aVwalusimbi
p4127
aVlwabenge
p4128
aVbijjaba
p4129
aVmuky
p4130
aVekampala
p4131
aVvampaya
p4132
aVbazala
p4133
aVbudu
p4134
aVmsw
p4135
aVmatovu
p4136
aVashiraph
p4137
aVlwo
p4138
aVbafunye
p4139
aVnkyagala
p4140
aVdevis
p4141
aVokusasika
p4142
aVobulumi
p4143
aVemutungo
p4144
aVbakyala
p4145
aVbusega
p4146
aVmukirombe
p4147
aVkampala
p4148
aVavi
p4149
aVeruzira
p4150
aVbayitamu
p4151
aVlya
p4152
aVarafat
p4153
aVphotoman
p4154
aVvinsent
p4155
aVekasenge
p4156
aVabaana
p4157
aVomuzimbi
p4158
aVtonny
p4159
aVbuwenda
p4160
aVbalamu
p4161
aVjesca
p4162
aVekibinge
p4163
aVbisaso
p4164
aVamaka
p4165
aVjonh
p4166
aVronnie
p4167
aVyiga
p4168
aVokundowoloeza
p4169
aVnsaale
p4170
aVmwenzi
p4171
aVkasagga
p4172
aVnjokambi
p4173
aVkuba
p4174
aVewobulenzi
p4175
aVhaluna
p4176
aVbuudu
p4177
aVkabale
p4178
atp4179
Rp4180
sVNyanja
p4181
g2
((lp4182
Vcoutry
p4183
aVyilibe
p4184
aVkujenda
p4185
aVimathesa
p4186
aVshumba
p4187
aVcaptain
p4188
aVnavutika
p4189
aVmseteka
p4190
aVchinyaku
p4191
aVkusavela
p4192
aVgracious
p4193
aVsalibwino
p4194
aVirimbe
p4195
aVakazi
p4196
aVlinaikidwa
p4197
aVbarracks
p4198
aVkucipatala
p4199
aVento
p4200
aVstreet
p4201
aVwa15yers
p4202
aVchilumbu
p4203
aVabia
p4204
aVchinkhombe
p4205
aVndina
p4206
aVmbiri
p4207
aVhere
p4208
aVobvuta
p4209
aVroyd
p4210
aVsogoro
p4211
aVakacedwakupita
p4212
aVnyelele
p4213
aVzone
p4214
aVhouses
p4215
aVmtumpha
p4216
aVkuika
p4217
aVdambalika
p4218
aVchritine
p4219
aVzilizonse
p4220
aVchinjala
p4221
aVthupi
p4222
aVnichadya
p4223
aVkulekeza
p4224
aVkapichila
p4225
aVasikana
p4226
aVaziba
p4227
aVkeijueno
p4228
aVwabwino
p4229
aVzemba
p4230
aVcalo
p4231
aVtaken
p4232
aVfemales
p4233
aVbombwe
p4234
aVgwilisa
p4235
aVkunyamulilamo
p4236
aVhamweene
p4237
aVbgas
p4238
aVshanganani
p4239
aVmust
p4240
aVtown
p4241
aVtisatile
p4242
aVkaluwa
p4243
aV_amasokonedza
p4244
aVnkhuwa
p4245
aVpolluts
p4246
aVyopya
p4247
aVaction
p4248
aVneeds
p4249
aVpangabwele
p4250
aVzambanja
p4251
aVmasuzyo
p4252
aVaanthu
p4253
aVpresident
p4254
aVmkalema
p4255
aVroyce
p4256
aVwhiteson
p4257
aVlao
p4258
aVsiyafuna
p4259
aVdavies
p4260
aVkeeps
p4261
aVmagwelo
p4262
aVmwandila
p4263
aVmnyeche
p4264
aVukachedwa
p4265
aVmatildah
p4266
aVsifumu
p4267
aVmumba
p4268
aVndeni
p4269
aVlesya
p4270
aVtimathandizika
p4271
aVchifuka
p4272
aVstephen
p4273
aVndithandizo
p4274
aVcompaund
p4275
aVmukazi
p4276
aVephrem
p4277
aVsaule
p4278
aVngatisiunapitemwamsangakuchipatala
p4279
aVbana
p4280
aVhapen
p4281
aVrobbie
p4282
aVmonsasamalira
p4283
aVhospto
p4284
aVkulundazi
p4285
aVazipitiliza
p4286
aValiyense
p4287
aVnanyangwe
p4288
aVnimayopela
p4289
aVludanzi
p4290
aVschemes
p4291
aVngosa
p4292
aVreduce
p4293
aVmugoza
p4294
aVyosalimba
p4295
aVtioneone
p4296
aVmotel
p4297
aVkufunika
p4298
aVbamacitilamo
p4299
aVmalaria_ndawa
p4300
aVmabwe
p4301
aVboloma
p4302
aVficklin
p4303
aVmlenga
p4304
aVtacedwa
p4305
aVcimaiwalika
p4306
aVyaboma
p4307
aVukakwidwa
p4308
aVjairos
p4309
aVwopani
p4310
aVelibe
p4311
aVsiyichilisidwa
p4312
aVmwamuna
p4313
aVkaulembe
p4314
aVbinwell
p4315
aVise
p4316
aVfrome
p4317
aVdine
p4318
aVakufa
p4319
aVbonface
p4320
aVmiti_adraida
p4321
aVndgne
p4322
aVitezhi
p4323
aVmareliya
p4324
aVhelard
p4325
aVesau
p4326
aVoruala
p4327
aVchandema
p4328
aVmaster
p4329
aVakakhalisa
p4330
aVireen
p4331
aVscheme
p4332
aVamunthu
p4333
aVkwaoneka
p4334
aVakankhalisa
p4335
aVmiliasi
p4336
aVsukhandiumoyo
p4337
aVktt
p4338
aVlazarous
p4339
aVchobvuta
p4340
aVtimathandizidwa
p4341
aVchikomeni
p4342
aVboston
p4343
aVlulu
p4344
aVkanyanga
p4345
aVyees
p4346
aVmankwala
p4347
aVzagwa
p4348
aV3umutiwa
p4349
aVnthwi
p4350
aVchimdidi
p4351
aVbrngz
p4352
aVshall
p4353
aVkuyizelu
p4354
aVnyamulengula
p4355
aVpakhale
p4356
aVjst
p4357
aVlokwima
p4358
aVnothing
p4359
aVmakwala
p4360
aVikhala
p4361
aVmalile
p4362
aVimapaya
p4363
aVsikabiri
p4364
aVsukhala
p4365
aVmushe
p4366
aVclean
p4367
aVtezhi
p4368
aVagnes
p4369
aVmafungausi
p4370
aVungamwe
p4371
aVeliphas
p4372
aVamakwanitsa
p4373
aVmadekeli
p4374
aVkupulumuka
p4375
aVnaomi
p4376
aVmpiri
p4377
aVsugar
p4378
aVaywell
p4379
aVnjira
p4380
aVkukwatiliwa
p4381
aVcecilia
p4382
aVmnthanzi
p4383
aVsili
p4384
aVchasato
p4385
aVzimaletesa
p4386
aVkutsokoneza
p4387
aVmtonga
p4388
aVchikowa
p4389
aVcleverson
p4390
aVnthongole
p4391
aVvikuta
p4392
aVackim
p4393
aVnyukwa
p4394
aVsizifunika
p4395
aVpads
p4396
aVfeligo
p4397
aVlipitilire
p4398
aVzodwa
p4399
aVngawagwidwa
p4400
aVkutetha
p4401
aVmshawa
p4402
aVasikanawo
p4403
aVpamuzi
p4404
aVnyangu
p4405
aVchigaga
p4406
aVchimankhala
p4407
aVmankhalala
p4408
aVyelani
p4409
aVchimpembe
p4410
aVmule
p4411
aVumoyo
p4412
aVazitikana
p4413
aVchoyamba
p4414
aVyakuti
p4415
aVannie
p4416
aVmazalen
p4417
aVpre
p4418
aVbongo
p4419
aVsky
p4420
aVrecycling
p4421
aVmusogoleli
p4422
aVcommunity
p4423
aVdevepmnt
p4424
aVmangwe
p4425
aVdstrict
p4426
aVkucipatara
p4427
aVkucita
p4428
aVakakhalisapo
p4429
aVlepu
p4430
aVfira
p4431
aVsiatwinda
p4432
aVfuna
p4433
aVwadziko
p4434
aV20yrs
p4435
aVmthiransembe
p4436
aViye
p4437
aVkusebezesha
p4438
aVsucceese
p4439
aVechondaitina
p4440
aVtimafunika
p4441
aVmicheal
p4442
aVvuta
p4443
aVsokoloku
p4444
aVipasa
p4445
aVmerwe
p4446
aVmilonga
p4447
aVcibvundula
p4448
aVchifwa
p4449
aVlaston
p4450
aVkumwamba
p4451
aVdamages
p4452
aVmasauso
p4453
aVelders
p4454
aVsidzatha
p4455
aVelemiya
p4456
aVatuwa
p4457
aVcipata
p4458
aVkazinkambani
p4459
aVprotected
p4460
aVchembe
p4461
aVulamuriro
p4462
aVumapola
p4463
aVkaduku
p4464
aVnikusinta
p4465
aVkelly
p4466
aVwamgono
p4467
aVpaulamulilo
p4468
aVumayenda
p4469
aVprovice
p4470
aVyer
p4471
aVesnat
p4472
aVboard
p4473
aVakatha
p4474
aVchungu
p4475
aVkusiriza
p4476
aVmakwara
p4477
aVpaliponse
p4478
aVdnine
p4479
aVsitali
p4480
aVamon
p4481
aVchristine
p4482
aVkuramurira
p4483
aVkaole
p4484
aVkuciyewe
p4485
aVgilrs
p4486
aVimapyola
p4487
aVamathesa
p4488
aVguday
p4489
aVsowet0
p4490
aVsimakhala
p4491
aVbenango
p4492
aVkapare
p4493
aVici
p4494
aVcamala
p4495
aVwanga
p4496
aVpet
p4497
aVpathupi
p4498
aVkunhala
p4499
aVndamukane
p4500
aVnadzantalema
p4501
aVpamoyo
p4502
aVmadzimoyo_chinjara
p4503
aVmunga
p4504
aVtimashoka
p4505
aVipitilile
p4506
aVmagazine
p4507
aVusowakonyamulira
p4508
aVciwbolya
p4509
aVtikwatiliwa
p4510
aVanyau
p4511
aVaibs
p4512
aVndodo
p4513
aVmkawile
p4514
aVkusalankhula
p4515
aVzumwanda
p4516
aVmafayo
p4517
aVwamung
p4518
aVmataidwe
p4519
aVanderson
p4520
aVakama
p4521
aVmapepala
p4522
aVnchifukwa
p4523
aVkalumanda
p4524
aVboyd
p4525
aVpaka
p4526
aVsucess
p4527
aVcabe
p4528
aVkuchipangali
p4529
aVpaks
p4530
aVpangakhale
p4531
aVnilamulo
p4532
aVchagwira
p4533
aVcathreen
p4534
aVyakhwima
p4535
aVkunabvutika
p4536
aVmupata
p4537
aVkatundu
p4538
aVpandala
p4539
aVezekiel
p4540
aVkalito
p4541
aValepha
p4542
aVmaiko
p4543
aVmeglina
p4544
aVsikavu
p4545
aVtari
p4546
aVphaniso
p4547
aVkusiliza
p4548
aVukhala
p4549
aVmunyukwa
p4550
aVmpezeni
p4551
aVcatheline
p4552
aVbravado
p4553
aVmaureen
p4554
aVland
p4555
aVchingakhale
p4556
aVkma
p4557
aVhome
p4558
aVdaily
p4559
aVmngelezi
p4560
aVyaubereki
p4561
aVmkopeka
p4562
aVkamatete
p4563
aVbongobongo
p4564
aVndaba
p4565
aVchipangali
p4566
aVfarms
p4567
aVchikuwe
p4568
aVchilungamo
p4569
aVchimsakasa
p4570
aVchapa
p4571
aVmopanda
p4572
aVdisposal
p4573
aVmuchenga
p4574
aVvikwati
p4575
aVgino
p4576
aVjere
p4577
aVtizayamba
p4578
aVngakhare
p4579
aVndake
p4580
aVentire
p4581
aVmusanga
p4582
aVquick
p4583
aVchibale
p4584
aVshadreck
p4585
aVkachinga
p4586
aVtrisha
p4587
aVkuvuta
p4588
aVnyalazi
p4589
aVsichilisika
p4590
aVmpovuta
p4591
aVeducate
p4592
aVsichedwa
p4593
aVakatengela
p4594
aVmlodzera
p4595
aVkacholola
p4596
aVkumwalila
p4597
aVtitandizeka
p4598
aVtikamaliza
p4599
aVbcause
p4600
aVmupaso
p4601
aVakapasiwa
p4602
aVmpetawayenga
p4603
aVchimate
p4604
aVmaking
p4605
aVmakungwa
p4606
aVnidala
p4607
aVbenson
p4608
aVskool
p4609
aVkwachelanji
p4610
aVchimbilima
p4611
aVdaliso
p4612
aVcargill
p4613
aVamafunikira
p4614
aVimasausa
p4615
aVmaumba
p4616
aVpakhlemalile
p4617
aVthats
p4618
aV0973347026
p4619
aVnyaphande
p4620
aVsgt
p4621
aVjabesy
p4622
aVkawinga
p4623
aVnichosaledwa
p4624
aVwayekha
p4625
aVapo
p4626
aVkufikila
p4627
aVaya
p4628
aVcho
p4629
aVfer
p4630
aVwinanso
p4631
aV0965602939
p4632
aVkaizole
p4633
aVtikali
p4634
aVtigwilns
p4635
aVhumphreyzo
p4636
aVefford
p4637
aVchalala
p4638
aVmirriam
p4639
aVcases
p4640
aVchizongwe
p4641
aVjulius
p4642
aVkutumila
p4643
aVwebster
p4644
aVbdaka
p4645
aVpakanthawi
p4646
aVlubinda
p4647
aVchisi
p4648
aVakwanise
p4649
aVtapela
p4650
aVgabby
p4651
aVchif
p4652
aVmchewele
p4653
aVemelda
p4654
aVkusavera
p4655
aVmumaola
p4656
aVvirege
p4657
aVnimfwa
p4658
aVbegs
p4659
aVyovuta
p4660
aVzilizose
p4661
aVsouthern
p4662
aVtizisamala
p4663
aVchiet
p4664
aVdemocracy
p4665
aVmackson
p4666
aVgunda
p4667
aVkhulika
p4668
aVnjra
p4669
aVmange
p4670
aVpaziko
p4671
aVkusamva
p4672
aVtimataya
p4673
aVmuyeso
p4674
aVnayife
p4675
aVamacita
p4676
aVumafamw
p4677
aVmpanso
p4678
aVamamwalire
p4679
aVnotaya
p4680
aVoperative
p4681
aVlimby
p4682
aVitani
p4683
aVzithu
p4684
aVphri
p4685
aVferguson
p4686
aVraydol
p4687
aVassets
p4688
aVkawala
p4689
aVbimayele
p4690
aVkumbenjele
p4691
aVchimpondo
p4692
aVakulu
p4693
aVmphondolo
p4694
aVcropping
p4695
aVcornelious
p4696
aVfobby
p4697
aVkana
p4698
aVubeleki
p4699
aVroads
p4700
aVonence
p4701
aVmbanja
p4702
aVkumwenda
p4703
aVubeleke
p4704
aVmatias
p4705
aVbaggs
p4706
aVkupaya
p4707
aVmsekera
p4708
aVkupitiliza
p4709
aVincrease
p4710
aVtikagwitsa
p4711
aVkwagino
p4712
aVchisomo
p4713
aVnyakutwa
p4714
aVatsikana
p4715
aVsipola
p4716
aVnishi
p4717
aVkumanja
p4718
aVcingacepese
p4719
aVmshanga
p4720
aVnjekwa
p4721
aVyess
p4722
aVaubasi
p4723
aVkupena
p4724
aVundii
p4725
aVchasefu
p4726
aVakakhalitsa
p4727
aVkapara
p4728
aVmwacdwa
p4729
aVcikuse
p4730
aVcathrin
p4731
aVplastix
p4732
aVchanje
p4733
aVamagwila
p4734
aVnyozani
p4735
aVgaveni
p4736
aVmalama
p4737
aVtikonyamulila
p4738
aVnzeru
p4739
aVani
p4740
aVtendai
p4741
aVocepa
p4742
aVingwe
p4743
aVukaitola
p4744
aVngona
p4745
aVackras
p4746
aVtinkhani
p4747
aVmis
p4748
aVsurf
p4749
aVnomanga
p4750
aVnyanje
p4751
aVnditsiku
p4752
aVkhomba
p4753
aVdube
p4754
aVchipetuka
p4755
aVkawingwa
p4756
aVmzibambo
p4757
aVpaulendo
p4758
aVzingathandize
p4759
aVkumuchosapo
p4760
aVkauzu
p4761
aVukapuma
p4762
aVmadzi
p4763
aVmzenje
p4764
aVmakelen
p4765
aVzatha
p4766
aVluasila
p4767
aVtiya
p4768
aVmlolo
p4769
aVkufukamo
p4770
aVacicepele
p4771
aV1tayakwatumuti
p4772
aVlupande
p4773
aVsairi
p4774
aVemmanuel
p4775
aVnyamtuma
p4776
aVmukulu
p4777
aVpamudzi
p4778
aVpopasana
p4779
aVmalungu
p4780
aVpakagono
p4781
aVzmwe
p4782
aVareas
p4783
aVsankho
p4784
aValiele
p4785
aVkupondeleza
p4786
aVambili
p4787
aVview
p4788
aVuchuluka
p4789
aVkupyolera
p4790
aVchamasongwe
p4791
aVsaulosi
p4792
aVkukonza
p4793
aVkunokupetauka
p4794
aVnyozan
p4795
aVtsiku
p4796
aV2tabapolangawalwala
p4797
aVcovuta
p4798
aVchezela
p4799
aVnotice
p4800
aVcomp
p4801
aVfrackson
p4802
aVnkhu
p4803
aVgreshus
p4804
aVchilombo
p4805
aVzakaria
p4806
aVangasunge
p4807
aVmonicas
p4808
aVjabson
p4809
aVmabanz
p4810
aVsimukanga
p4811
aVgrounds
p4812
aVthwala
p4813
aVikwele
p4814
aVchigombe
p4815
aVyamuyaya
p4816
aVvakacani
p4817
aVninthenda
p4818
aVwaly
p4819
aVyai
p4820
aVyoram
p4821
aVvenders
p4822
aVlauwrence
p4823
aVcnda
p4824
aValimon
p4825
aVkukwatilisa
p4826
aVvizmumba
p4827
aVvileg
p4828
aVazayamba
p4829
aVasnankwime
p4830
aVambewe
p4831
aVkuzzindkira
p4832
aVmchenga
p4833
aVjebeckx
p4834
aVilo
p4835
aVkamphawi
p4836
aValakwisa
p4837
aVnkhwewakhwewa
p4838
aVmupanene
p4839
aVtinyamulilenge
p4840
aVnabvutika
p4841
aVnkowane
p4842
aVkachakwala
p4843
aVmangwala
p4844
aVmtimba
p4845
aVmwenya
p4846
aVyakupha
p4847
aVbaibe
p4848
aVpas
p4849
aVdoctor
p4850
aVbagx
p4851
aVmsikana
p4852
aVpanthawi
p4853
aVsamvela
p4854
aVtisavomeze
p4855
aVsachita
p4856
aVokomela
p4857
aVpenias
p4858
aVkhondowe
p4859
aVsackson
p4860
aVkupambana
p4861
aVchipalamba
p4862
aVmchinzdale
p4863
aVmedson
p4864
aVyocepa
p4865
aVlemek
p4866
aVkunyamuliramo
p4867
aViyambenso
p4868
aVtingzittezere
p4869
aVyanje
p4870
aVnephtaly
p4871
aVbvuto
p4872
aVmanzi
p4873
aVmathias
p4874
aVpupu
p4875
aVkucipangari
p4876
aVmantha
p4877
aVmaulawo
p4878
aVpobeleka
p4879
aVbages
p4880
aVnthambo
p4881
aVfisheni
p4882
aVpags
p4883
aVukhwitsa
p4884
aVchamuthu
p4885
aVcofanka
p4886
aVochepekela
p4887
aVcheaf
p4888
aVcletus
p4889
aVsosten
p4890
aVthinkn
p4891
aVmphongwe
p4892
aVkugawana
p4893
aVpafunika
p4894
aVpaitana
p4895
aVmozambique
p4896
aVzokomela
p4897
aVmisheck
p4898
aVemployment
p4899
aVzozittezera
p4900
aVwozidarira
p4901
aVsitenja
p4902
aVifa
p4903
aVsteadman
p4904
aVkumpasala
p4905
aVbrighton
p4906
aVpovat
p4907
aVchimakula
p4908
aVchambawa
p4909
aVmfuleni
p4910
aVtiriko
p4911
aVzambri
p4912
aVlamtundu
p4913
aVburton
p4914
aVakalibe
p4915
aVafuna
p4916
aVliona
p4917
aVninaciona
p4918
aVsuzen
p4919
aVfeair
p4920
aVkasangazi
p4921
aV2mmorow
p4922
aVgort
p4923
aVzagode
p4924
aVnyamphande
p4925
aVchimene
p4926
aVnsadzu
p4927
aVinachita
p4928
aVkukwatitsa
p4929
aVopolesa
p4930
aVchitule
p4931
aVpansi
p4932
aVnchito
p4933
aVmada
p4934
aVportpher
p4935
aVmphamvu
p4936
aVkapala
p4937
aVimatua
p4938
aVfukwa
p4939
aVsaen
p4940
aVaffodeble
p4941
aVtenga
p4942
aVeric
p4943
aVmontez
p4944
aVmaleya
p4945
aVamabvutika
p4946
aVfield
p4947
aVmisholo
p4948
aVyos
p4949
aVmnthu
p4950
aVkulowa
p4951
aVpear
p4952
aValaweko
p4953
aVchilowe
p4954
aVchifi
p4955
aVamachoka
p4956
aVcilungamo
p4957
aVmudziko
p4958
aVrule
p4959
aVmpando
p4960
aVchife
p4961
aVcouse
p4962
aVamgaole
p4963
aVignitius
p4964
aVcpt
p4965
aVwaanthu
p4966
aVnimaopa
p4967
aVcakuti
p4968
atp4969
Rp4970
sVChichewa
p4971
g2
((lp4972
Vali
p4973
aVblackson
p4974
aVkatimbira
p4975
aVizo
p4976
aVtheyala
p4977
aVchipadela
p4978
aVbruno
p4979
aVmphika
p4980
aVmonjezi
p4981
aVuchebe
p4982
aVmwa
p4983
aVsadya
p4984
aVzilibwino
p4985
aVmisale
p4986
aVmatekenya
p4987
aVdisimasi
p4988
aVchawantha
p4989
aVmarungo
p4990
aVkhima
p4991
aVmzuzu
p4992
aVkaponya
p4993
aVpamwambazi
p4994
aVkasto
p4995
aVmabanja
p4996
aVmzowopswa
p4997
aVimodzi
p4998
aVmzuzi
p4999
aVasaletsedwe
p5000
aVdictatorship
p5001
aVwawukholo
p5002
aV1akakhalitsa
p5003
aVchikaiko
p5004
aVsand
p5005
aVanao
p5006
aVmatandizo
p5007
aVzosinthasintha
p5008
aVkumudulila
p5009
aVkasengwa
p5010
aVmayeso
p5011
aVwillam
p5012
aVazikhalako
p5013
aVkausen
p5014
aVntanda
p5015
aVlivasoni
p5016
aVchipangula
p5017
aVaphunzitsi
p5018
aVkum
p5019
aVpetro
p5020
aVozon
p5021
aVmaleriya
p5022
aVpolandira
p5023
aV2upatsana
p5024
aVndiedzi
p5025
aVazindikira
p5026
aVmamkhwala
p5027
aVokulilapo
p5028
aVjonas
p5029
aVnyimbo
p5030
aVkunsaru
p5031
aVmalaliya
p5032
aVsuthawa
p5033
aVndiyopanda
p5034
aVasokoneze
p5035
aVmtenthera
p5036
aVfumbi
p5037
aVpiloting
p5038
aVkulemba
p5039
aVake
p5040
aVkuntchisi
p5041
aVamaphunzira
p5042
aVsukutha
p5043
aVkuchoke
p5044
aVchifuk
p5045
aVkumalizitsa
p5046
aVakafike
p5047
aVkukwatiwit
p5048
aVamaiwo
p5049
aVsalola
p5050
aVmthupi
p5051
aVthale1
p5052
aVngono
p5053
aVstrike
p5054
aVndinda
p5055
aVadzakhala
p5056
aVstambuli
p5057
aVmulakho
p5058
aVchikayi
p5059
aVpoti
p5060
aVnkk
p5061
aVwilberforce
p5062
aVakadatan
p5063
aVchifukwamumup
p5064
aVnthema
p5065
aVadzipiliza
p5066
aVkuonga
p5067
aVerv
p5068
aVwanawazaka
p5069
aVletala
p5070
aVkubweleza
p5071
aVsimbino
p5072
aVtiziona
p5073
aVidakalibe
p5074
aVmwansambo
p5075
aVvyovyo
p5076
aVkufakumene
p5077
aVzabanja
p5078
aVhanifa
p5079
aVsitandade
p5080
aVchasolo
p5081
aVtizitaya
p5082
aVkomakupewa
p5083
aVkuyamba
p5084
aVamayitenga
p5085
aVkwachimtanda
p5086
aVsipofuni
p5087
aVkalasi
p5088
aVkumchinji
p5089
aVsamaliza
p5090
aVazilandila
p5091
aVloterolo
p5092
aVukwatiwa
p5093
aVnyodo
p5094
aVchidule
p5095
aValetsedwe
p5096
aVkatangale
p5097
aVndikumvomeleza
p5098
aVakupeza
p5099
aVchibwe
p5100
aVwasakwatiwe
p5101
aVufiti
p5102
aVamayi
p5103
aVokha
p5104
aVposaganizira
p5105
aVlivimb
p5106
aVwambi
p5107
aVkamwana
p5108
aVtsono
p5109
aVpomwe
p5110
aVdziko
p5111
aVapse
p5112
aVkumayadi
p5113
aVoffice
p5114
aVtiwana
p5115
aVkuwopa
p5116
aVmalitino
p5117
aVamakonda
p5118
aVsteria
p5119
aVlokamiza
p5120
aVlozi
p5121
aVchinthu
p5122
aVbefore
p5123
aVomwa
p5124
aVlabisoni
p5125
aVakakamizidwe
p5126
aVchiwayo
p5127
aVliri
p5128
aVapilile
p5129
aVakoze
p5130
aVsizokwanila
p5131
aVkapiri
p5132
aVmkumulakwira
p5133
aVsalima
p5134
aVkorambwe
p5135
aVkuchandulu
p5136
aVlaisi
p5137
aVgomera
p5138
aVnkoyenera
p5139
aVkutelo
p5140
aVkachingwe
p5141
aVinendaziwonakunokwanamarambanikuti
p5142
aVchombo
p5143
aVninnie
p5144
aVyochepa
p5145
aVnkhomphola
p5146
aVife
p5147
aVubwinowasukulu
p5148
aVligwire
p5149
aVmalangizo
p5150
aVimatenga
p5151
aVtsogoro
p5152
aVakaphuzila
p5153
aVchateka
p5154
aVkamobzi
p5155
aVtrading
p5156
aVbenda
p5157
aVukwatitsa
p5158
aVchiwelewele
p5159
aVatazolowera
p5160
aVndimuthandiza
p5161
aVotengela
p5162
aVasakwatiwe
p5163
aVstaniel
p5164
aVtsikana
p5165
aVchifu
p5166
aVakutha
p5167
aVpakufunika
p5168
aVumphawi
p5169
aVzisanu
p5170
aVoopsa
p5171
aVstandard
p5172
aVsamatha
p5173
aVkasambeni
p5174
aVkukwatiwitsa
p5175
aVbasi
p5176
aVanga
p5177
aVfiar
p5178
aVndizina
p5179
aVchibothera
p5180
aVmkofunika
p5181
aVkugwira
p5182
aVazawo
p5183
aVotele
p5184
aVasiye
p5185
aVndizokwanila
p5186
aVsipoyenela
p5187
aVnindi
p5188
aVyobereka
p5189
aVayi0
p5190
aVosati
p5191
aVkomaso
p5192
aVmusah
p5193
aVkolimunga
p5194
aVfupa
p5195
aVesawo
p5196
aVnkhumba
p5197
aVfrywell
p5198
aVmanyengo
p5199
aVzikwama
p5200
aVasakwatiwa
p5201
aValipo
p5202
aVphelantuni
p5203
aVndizambiri
p5204
aVndikwokwanirandine
p5205
aVamakol
p5206
aVyoitenga
p5207
aVnthondowa
p5208
aVakudalitseni
p5209
aVmalonda
p5210
aVothamangira
p5211
aVsamawola
p5212
aVasamakhare
p5213
aVyoopsa
p5214
aVtsogolo
p5215
aVellina
p5216
aVziri
p5217
aVluwisi
p5218
aVadzayamba
p5219
aVkwalilanji
p5220
aVmozambiki
p5221
aVakuthandizilaso
p5222
aVowaphula
p5223
aVmkoko
p5224
aVkadango
p5225
aVchake
p5226
aVkingkukastom
p5227
aVbaki
p5228
aVnamitete
p5229
aVapezeso
p5230
aVasanapite
p5231
aVitheke
p5232
aVmwadaladala
p5233
aVasapite
p5234
aVkayo
p5235
aVmkokwanira
p5236
aVasanakhwime
p5237
aVakuopsa
p5238
aVzakwana
p5239
aVmajumbo
p5240
aVungu
p5241
aVakaphunzila
p5242
aVtikufuna
p5243
aVsangakwanitse
p5244
aVpemba
p5245
aVathakukupha
p5246
aVtym
p5247
aVazithandizira
p5248
aVhaward
p5249
aVkondwelani
p5250
aVndioopsya
p5251
aVkangwere
p5252
aVcentres
p5253
aVchamlandu
p5254
aVmkalasi
p5255
aVkas
p5256
aVndikuzindikira
p5257
aVyoyamba
p5258
aVlomwe
p5259
aVkay
p5260
aVakaphuzira
p5261
aVziribwino
p5262
aVsyrubus
p5263
aVangosiya
p5264
aVkalimu
p5265
aVmarungu
p5266
aVmervi
p5267
aVwerengan
p5268
aVchikhalire
p5269
aVvoting
p5270
aVakumawatuma
p5271
aVakaona
p5272
aVmwanao
p5273
aVanawo
p5274
aVsakupha
p5275
aVkabudula
p5276
aVwachita
p5277
aVmpofuni
p5278
aVpachifukwa
p5279
aVadikile
p5280
aVamenewo
p5281
aVagawa
p5282
aVmathiass
p5283
aVapitilizemaphuzilo
p5284
aVnikokwana
p5285
aVamenewa
p5286
aVkokha
p5287
aVpakuti
p5288
aVakuwonetsakuti
p5289
aVwavuta
p5290
aVndikumuphwan
p5291
aVtsani
p5292
aVnikwasakadziko
p5293
aVkayembe
p5294
aVndikuti
p5295
aVndiyoopsa
p5296
aVyayitali
p5297
aVamadzavutika
p5298
aVineofewa
p5299
aVchibowa
p5300
aVban
p5301
aVndimatha
p5302
aVautomatic
p5303
aVzosezo
p5304
aVkudzawathandiza
p5305
aVwatulukira
p5306
aVchikondi
p5307
aVntawi
p5308
aVatadziwa
p5309
aValongosole
p5310
aVakewo
p5311
aViri
p5312
aVloti
p5313
aVamazolowela
p5314
aVsonifala
p5315
aVbumphula
p5316
aVndiedz
p5317
aVtamakoswe
p5318
aVkhungwa
p5319
aVkumudzi
p5320
aVchomwe
p5321
aVsaudziwa
p5322
aVkunam
p5323
aVkuchizika
p5324
aVapabajapo
p5325
aVazao
p5326
aVchisati
p5327
aVreceived
p5328
aVthomani
p5329
aVnzindo
p5330
aVzidzawathandiza
p5331
aVkupitiriza
p5332
aVsadatiakathetsa
p5333
aVkalambule
p5334
aVsionse
p5335
aVutsata
p5336
aVchichitike
p5337
aVakumamfa
p5338
aVkachikoti
p5339
aVmsampha
p5340
aVsinoya
p5341
aVatatsekuka
p5342
aVzaten
p5343
aVkaphala
p5344
aVangel
p5345
aVakaphunzir
p5346
aVndikukwatiwisa
p5347
aVelisa
p5348
aVchalewa
p5349
aVwankaziyo
p5350
aVbingu
p5351
aVpovuta
p5352
aVamacizika
p5353
aVchimphanje
p5354
aVnkhaza
p5355
aVchiutsi
p5356
aVkathu
p5357
aVmasilabasi
p5358
aVkwamawonga
p5359
aVbenga
p5360
aVmoreen
p5361
aVmalungonso
p5362
aVubongo
p5363
aVkuchipata
p5364
aVkuchepa
p5365
aVsakadziko
p5366
aVpakamwendo
p5367
aVatakhwima
p5368
aVasaleke
p5369
aVnowa
p5370
aVeayala
p5371
aVazikhalabe
p5372
aVvuto
p5373
aVinewatisoni
p5374
aVmzoyenera
p5375
aVopalechoni
p5376
aVlamwanayo
p5377
aVlenard
p5378
aVnipabwino
p5379
aVkalembeni
p5380
aVsikubweza
p5381
aVmtenje
p5382
aVosatengapo
p5383
aVyomwe
p5384
aVfya
p5385
aVsainet
p5386
aVkute
p5387
aVkumeneko
p5388
aVkwam
p5389
aVamapanga
p5390
aVkwalobat
p5391
aVviiiage
p5392
aVshad
p5393
aVmaida
p5394
aVpatuma
p5395
aVpsa
p5396
aVawiri
p5397
aVmasukulu
p5398
aVjiya
p5399
aVpangozi
p5400
aVjamson
p5401
aVtilimo
p5402
aVmuotcha
p5403
aVmaramura
p5404
aVndikuwonla
p5405
aVchawala
p5406
aVzosezizimapha
p5407
aVakanakhala
p5408
aVakadzaphuzira
p5409
aVkulimbikira
p5410
aVnyasulu
p5411
aVabale
p5412
aVchinkhaka
p5413
aVakwatiwe
p5414
aVkuthesa
p5415
aVkale
p5416
aVmlonyeni
p5417
aVasinthe
p5418
aVukhoza
p5419
aVkatenje
p5420
aVzituko
p5421
aVamaposa
p5422
aVamabwela
p5423
aVkuntchis
p5424
aVheraufulu
p5425
aVprince
p5426
aVamakula
p5427
aVndikuwo
p5428
aVbetiasi
p5429
aVanyi
p5430
aVmavu
p5431
aVndioos
p5432
aVosman
p5433
aVmayi
p5434
aVatha
p5435
aVkwamzikuola
p5436
aVmwachangu
p5437
aVtembwe
p5438
aVmtalimanja
p5439
aVlezani
p5440
aVndiyabwino
p5441
aVazasamalidwa
p5442
aVkusinthasintha
p5443
aVkumalowa
p5444
aVpalibe
p5445
aVsemu
p5446
aVkumalawiko
p5447
aVakumulakwila
p5448
aVyolonimo
p5449
aVyowopsa
p5450
aVachance
p5451
aVpamawa
p5452
aVganizani
p5453
aVmwanayo
p5454
aVkukhala
p5455
aVkufika
p5456
aVwasili
p5457
aVphirip
p5458
aVmohara
p5459
aVzotele
p5460
aVdickison
p5461
aVinejazeni
p5462
aVwanyura
p5463
aVpulayimale
p5464
aVadziko
p5465
aVoyembekezera
p5466
aVbola
p5467
aVnjezela
p5468
aVatsogoleri
p5469
aVkambakakuti
p5470
aVgome
p5471
aVchizewo
p5472
aVufe
p5473
aVndithu
p5474
aVdzanja
p5475
aVibwelerenso
p5476
aVche
p5477
aVsikutha
p5478
aViwowo
p5479
aVchikho
p5480
aVeliya
p5481
aVyachina
p5482
aV8yrs
p5483
aVzokudya
p5484
aVgilime
p5485
aVamaiwa
p5486
aVmoyowakeso
p5487
aVdyson
p5488
aVineyo
p5489
aVmwachumu
p5490
aVsangachitire
p5491
aVyelemiya
p5492
aVmbuna
p5493
aVezara
p5494
aVchima
p5495
aVliwaladzi
p5496
aVdowa
p5497
aVchikhasu
p5498
aVwam
p5499
aVwamuna
p5500
aVmafupa
p5501
aVmcdonald
p5502
aVamfumu
p5503
aVchidzuma
p5504
aVscondar
p5505
aVkunokukasungu
p5506
aVchipsinjo
p5507
aVsyllabus
p5508
aVkadongola
p5509
aVkukapili
p5510
aVmpama
p5511
aVndondomeko
p5512
aVthundu
p5513
aVprevantable
p5514
aVlino
p5515
aVukwatiwitsa
p5516
aVukwati
p5517
aVjaulo
p5518
aVwonjezani
p5519
aVlimafuni
p5520
aVadziotche
p5521
aVkamwendo
p5522
aVayiasakwatiwe
p5523
aVkukochirila
p5524
aVzokwanira
p5525
aVsekelan
p5526
aVwoopsa
p5527
aVazigulitsaso
p5528
aVamkhala
p5529
aVtitakalamba
p5530
aVasakwakwatiwe
p5531
aVchan
p5532
aVsibwno
p5533
aVlimeneri
p5534
aVndikupereka
p5535
aVzikuchulutsa
p5536
aVmazawa
p5537
aVanzake
p5538
aVzabwino
p5539
aVyanga
p5540
aVmwadala
p5541
aVlucie
p5542
aVgama
p5543
aVkusintha
p5544
aVmlandu
p5545
aVshabani
p5546
aVpabanja
p5547
aVrimbiri
p5548
aVthengo
p5549
aVkadombe
p5550
aVlanu
p5551
aVndiyopsa
p5552
aVimafuna
p5553
aVazilamula
p5554
aVkuonjezela
p5555
aVchiyabwe
p5556
aVessau
p5557
aVedziumadya
p5558
aVeds
p5559
aVapange
p5560
aVsibwinokukwatiwa
p5561
aVakumaliza
p5562
aVchilango
p5563
aVkalekale
p5564
aVutha
p5565
aVzikomo
p5566
aVumakhala
p5567
aVkwasandulizen
p5568
aVakatentha
p5569
aVothetsela
p5570
aVkukwatilitsa
p5571
aVumphawiwo
p5572
aVchitukuko
p5573
aVmwatsoka
p5574
aVatiwamavuto
p5575
aVmunkhuti
p5576
aVsintha
p5577
aVmdiye
p5578
aVsikuthetsa
p5579
aVassan
p5580
aVamasenza
p5581
aVmaness
p5582
aVmazinga
p5583
aVdim
p5584
aVudzudzu
p5585
aVndikumuphela
p5586
aVmatawale
p5587
aVtizitayila
p5588
aVzakazaka
p5589
aVkwakumkwala
p5590
aVasasiye
p5591
aVmatola
p5592
aVmalalei
p5593
aVakuyenera
p5594
aVamafunanso
p5595
aVnzosiyilana
p5596
aVlevie
p5597
aVzilbah
p5598
aVmayadi
p5599
aVuchepeko
p5600
aVkauma
p5601
aVjoefrey
p5602
aVkwamveka
p5603
aVweniweni
p5604
aVmizeck
p5605
aVjamison
p5606
aVndikoyenela
p5607
aVkathyuka
p5608
aVkwamalasa
p5609
aVchitipwa
p5610
aVkuchokela
p5611
aVmmalo
p5612
aVlonjezo
p5613
aVmtsindo
p5614
aVndizokwana
p5615
aVkumikundi
p5616
aVdalitso
p5617
aVgladys
p5618
aVcise
p5619
aVndikumwalira
p5620
aValoni
p5621
aVkuthandiza
p5622
aVnazalene
p5623
aVaphunzire
p5624
aVmulebo
p5625
aVsylabus
p5626
aVonyamata
p5627
aVnzelu
p5628
aVmawa
p5629
aValomwe
p5630
aVomulipila
p5631
aVmalepera
p5632
aVtongozala
p5633
aVakhazikitsidwe
p5634
aVmakhala
p5635
aVtizipatsana
p5636
aVndizachimidzi
p5637
aVumavutitsa
p5638
aVzitakha
p5639
aVmwasanga
p5640
aVsiutha
p5641
aVzochuluka
p5642
aVnambuma
p5643
aVkochokera
p5644
aVubuli
p5645
aVnyomgan
p5646
aVpawl
p5647
aVkapili
p5648
aVambikli
p5649
aVkamasula
p5650
aVayi
p5651
aVakathandize
p5652
aVyochapidwa
p5653
aVaye
p5654
aVyagwira
p5655
aVukuchokela
p5656
aVuphela
p5657
aVmzofunika
p5658
aVamachizika
p5659
aVakumva
p5660
aVinfection
p5661
aVnkosi
p5662
aVzaidi
p5663
aVayenela
p5664
aVmareriya
p5665
aVyakale
p5666
aVndisilabasi
p5667
aVchazama
p5668
aVzosiyana
p5669
aVuli
p5670
aVpampawo
p5671
aVayiii
p5672
aVmalomo
p5673
aVakwati
p5674
aVumabwala
p5675
aVndinkhondo
p5676
aVkusitha
p5677
aVlabwino
p5678
aVlowala
p5679
aVkupeza
p5680
aVdzuka
p5681
aVabudukuno
p5682
aVadzawathandize
p5683
aVpopeza
p5684
aVkusiya
p5685
aVguileme
p5686
aVinekoma
p5687
aVakakw
p5688
aVzake
p5689
aVafricano
p5690
aVmzokwana
p5691
aVanzeru
p5692
aVazilamulira
p5693
aVwamamuna
p5694
aVkunokwampama
p5695
aVkumuphela
p5696
aVfatsani
p5697
aVwalomwe
p5698
aVluka
p5699
aVzokha
p5700
aValifosina
p5701
aVxool
p5702
aVnthanje
p5703
aVissa
p5704
aVremember
p5705
aVmtengabvumba
p5706
aVlines
p5707
aVpochita
p5708
aVmatutu
p5709
aVrather
p5710
aVbeliam
p5711
aVsumatha
p5712
aVkalanje
p5713
aVbuzness
p5714
aVchabwino
p5715
aVelia
p5716
aValetse
p5717
aVzimenez
p5718
aVjnz
p5719
aVamalonjeza
p5720
aVutana
p5721
aVndikupha
p5722
aVtiyamike
p5723
aVmwayi
p5724
aVsavimbi
p5725
aVnthaka
p5726
aVmutu
p5727
aVatsogoleli
p5728
aVwapezeka
p5729
aVkafeleni
p5730
aVhandwel
p5731
aViiii
p5732
aVchongo
p5733
aVmusaletse
p5734
aVwawa
p5735
aV16ryz
p5736
aVkuschool
p5737
aVakadziotche
p5738
aVadzathandiza
p5739
aVmalire
p5740
aVmaik
p5741
aVwasakwatile
p5742
aVkasakula
p5743
aVozindikara
p5744
aVedzindiyovuta
p5745
aVmwake
p5746
aVmasiku
p5747
aVkaiton
p5748
aVcholemela
p5749
aVthandiwe
p5750
aVpalast
p5751
aVzomwe
p5752
aVamangopangitsakuti
p5753
aVkuremera
p5754
aVmphanga
p5755
aVakule
p5756
aVmtekateka
p5757
aVnkhani
p5758
aVndima
p5759
aVkwakapanga
p5760
aVmwanaangatani
p5761
aVkankhomba
p5762
aVmpofunika
p5763
aVpoyenerangatiaruyendetsabwinodzikoro
p5764
aVmzandu
p5765
aVpayekha
p5766
aVangadzakwatiwenaye
p5767
aV10485760
p5768
aVchivuta
p5769
aVkazip
p5770
aVkafodyah
p5771
aVkwamsaka
p5772
aValekereni
p5773
aVbytes
p5774
aVmmalawi
p5775
aVahmad
p5776
aVamadziwa
p5777
aVbuma
p5778
aVameneyo
p5779
aVmamuna
p5780
aVkapalamula
p5781
aVzofuna
p5782
aVamajaila
p5783
aVadziwe
p5784
aVmseche
p5785
aVarindichangu
p5786
aVinternet
p5787
aVayeseko
p5788
aVimavuta
p5789
aVmbingwa
p5790
aVnzokwana
p5791
aVkanthiti
p5792
aVkudwaritsa
p5793
aVwawo
p5794
aVkuphunzira
p5795
aVtichepetse
p5796
aVyosefe
p5797
aVnditsogolo
p5798
aVludzi
p5799
aVakozetsogolo
p5800
aVumatha
p5801
aVkusuku
p5802
aVkugona
p5803
aVwapeza
p5804
aVnsakambewa
p5805
aVpamenepo
p5806
aVadzilemba
p5807
aVmtsogoro
p5808
aVasanakayambe
p5809
aVmasanya
p5810
aVndiopunduka
p5811
aVvoti
p5812
aVvote
p5813
aVyine
p5814
aVplastico
p5815
aVmalinga
p5816
aVpatison
p5817
aVkadziotche
p5818
aVndibwino
p5819
aVayambe
p5820
aVowopsya
p5821
aValfred
p5822
aVmalisen
p5823
aVamayamba
p5824
aVmasawu
p5825
aVunicky
p5826
aVsekondale
p5827
aVmpata
p5828
aVnidenja
p5829
aVsilabasi
p5830
aVsazadzidya
p5831
aVikagwira
p5832
aVndiopsa
p5833
aVkunambuma
p5834
aVmosavuta
p5835
aVatalumidwa
p5836
aVnamoni
p5837
aVkukhalanayo
p5838
aVsimayankho
p5839
aVakuononga
p5840
aVbeg
p5841
aVnyaza
p5842
aVmoto
p5843
aVndereya
p5844
aVndimalungo
p5845
aVmkhota
p5846
aVamasikwano
p5847
aVmponela
p5848
aVredson
p5849
aVzili
p5850
aVkudowa
p5851
aVmatem
p5852
aVasakwatire
p5853
aVallen
p5854
aVnazi
p5855
aValesedwe
p5856
aVungwe
p5857
aVtaphuzitsa
p5858
aVamayiwakewo
p5859
aVopsa
p5860
aVisaki
p5861
aVlovemore
p5862
aVmdziko
p5863
aVamadziwazambili
p5864
aV4lo
p5865
aVaziyankha
p5866
aVteremu
p5867
aViwo
p5868
aVasakwatile
p5869
aVazilemba
p5870
aVadzayima
p5871
aValinawo
p5872
aVawo
p5873
aVbeta
p5874
aVamayiwo
p5875
aVkamkwamba
p5876
aVzikuwononga
p5877
aVadilo
p5878
aVonjezera
p5879
aVziko
p5880
aVmalugoniyowo
p5881
aVinde
p5882
aVkalimila
p5883
aValiyese
p5884
aVkulozi
p5885
aVwmana
p5886
aVkuwonjezera
p5887
aVakuwaonawo
p5888
aVkawiri
p5889
aVlimaswa
p5890
aVbright
p5891
aVwoti
p5892
aVperlas
p5893
aVkupulayimale
p5894
aVbrino
p5895
aVkatatu
p5896
aVakhale
p5897
aVjay
p5898
aVrobt
p5899
aVmaphuzilo
p5900
aVaphuzile
p5901
aVkusukuluko
p5902
aVakhoza
p5903
aViyiasakwatiwe
p5904
aVchiye
p5905
aVkumukakamiza
p5906
aVavad
p5907
aVelitayekhayo
p5908
aVopeza
p5909
aVmcford
p5910
aVukaitenga
p5911
aVmuno
p5912
aVapitilize
p5913
aVeya
p5914
aVkawiya
p5915
aVchilundu
p5916
aViyambileso
p5917
aVndimumphela
p5918
aVumbuli
p5919
aVakanawathandiza
p5920
aVkuima
p5921
aVshd
p5922
aVndikumuphera
p5923
aVakadali
p5924
aVsichitsika
p5925
aVkapena
p5926
aVndikusinthasintha
p5927
aVkusulu
p5928
aVchipumi
p5929
aVrabson
p5930
aVmngwangwa
p5931
aVamatayirira
p5932
aVzikutandira
p5933
aVeyeyo
p5934
aVzambili
p5935
aVasawatile
p5936
aVcomputer
p5937
aVmtsikanayi
p5938
aVlne
p5939
aVuthe
p5940
aVthandizo
p5941
aVmwina
p5942
aVlumwira
p5943
aVsir
p5944
aVakonze
p5945
aVzothandiza
p5946
aVolemba
p5947
aVmfumu
p5948
aVmapeto
p5949
aVosamatelo
p5950
aVsiyana
p5951
aVnkho
p5952
aVnzokwanira
p5953
aVnpanvu
p5954
aVtermz
p5955
aVgondwe
p5956
aVkawili
p5957
aVsakudziw
p5958
aVkabuwe
p5959
aVkwanthema
p5960
aVchonde
p5961
aVlilongwe
p5962
aVamachitamanyazi
p5963
aVyalelo
p5964
aVskulu
p5965
aVkwaka
p5966
aVmakolowo
p5967
aVndikuwathandiza
p5968
aVsamavuto
p5969
aVamoni
p5970
aVmtasaka
p5971
aVmmene
p5972
aVtikusowa
p5973
aVabdul
p5974
aVyila
p5975
aVinu
p5976
aVsicho
p5977
aVnotgood
p5978
aVmanebal
p5979
aVwamasulidwa
p5980
aVsizigwirazana
p5981
aVwaku
p5982
aVbwabwa
p5983
aVboscor
p5984
aVwake
p5985
aVmalamuro
p5986
aVambuye
p5987
aVchikulumba
p5988
aVsafiana
p5989
aVupita
p5990
aVkungoku
p5991
aVnkhuku
p5992
aVshida
p5993
aVoyenerera
p5994
aVmulekeni
p5995
aVyamakolo
p5996
aVchilengedwe
p5997
aVkomasokamwedwekamankwala
p5998
aVlayer
p5999
aVndichakuti
p6000
aVsimaya
p6001
aVmaluwa
p6002
aVlumbani
p6003
aVzachuluka
p6004
aVkwamsakad
p6005
aVlevison
p6006
aVangakhalenso
p6007
aVakamata
p6008
aVsikapitolo
p6009
aVkwachikho
p6010
aVpau
p6011
aVarice
p6012
aVdasitani
p6013
aVmwanawamng
p6014
aVliti
p6015
aVangatailire
p6016
aVwawukulu
p6017
aVndizakuthandizani
p6018
aVsalimba
p6019
aVsiotha
p6020
aVenandiena
p6021
aVhamees
p6022
aVasakwitiwe
p6023
aVelina
p6024
aVmankha
p6025
aVwekha
p6026
aVchingolo
p6027
aVchifundo
p6028
aVfighting
p6029
aVkwapinda
p6030
aVmkuchepako
p6031
aVyesaya
p6032
aVmavuto
p6033
aVkenamu
p6034
aVumenewu
p6035
aVzakazo
p6036
aVmaphuziro
p6037
aVzifukwa
p6038
aVchisamba
p6039
aVkuononga
p6040
aVjuwax
p6041
aVmzake
p6042
aValiwachipere
p6043
aVosaumiza
p6044
aVkuwalimbikitsa
p6045
aVamalowa
p6046
aVamayio
p6047
aVpatsogolo
p6048
aVusage
p6049
aVbabilas
p6050
aVmgubo
p6051
aVakaphunzira
p6052
aVandso
p6053
aVndamene
p6054
aVama
p6055
aVkochepa
p6056
aVndawambi
p6057
aVincreases
p6058
aVyelymiya
p6059
aVkunokwa
p6060
aVfalida
p6061
aVndioopsa
p6062
aVchididi
p6063
aVchristina
p6064
aVshephard
p6065
aVcollective
p6066
aVudindo
p6067
aVozone
p6068
aVaziyima
p6069
aVjanuary
p6070
aVzaumoyo
p6071
aVamadwala
p6072
aVchifukwatsongolorake
p6073
aVkuimanso
p6074
aVthokoza
p6075
aVkuchakudya
p6076
aVangatigwire
p6077
aVyandalama
p6078
aVzipangizo
p6079
aVakwatira
p6080
aVwesly
p6081
aVkwacha
p6082
aVakwatire
p6083
aVaziima
p6084
aVyerymiya
p6085
aVketwell
p6086
aVkwachi
p6087
aVngakhale
p6088
aVzankhuli
p6089
aVlongwe
p6090
aVzawo
p6091
aVndakana
p6092
aVbelan
p6093
aVamavuto
p6094
aVkawamba
p6095
aVkugula
p6096
aVkasungu
p6097
aVjangia
p6098
aVzaku
p6099
aVpika
p6100
aVonop
p6101
aVmangofuna
p6102
aVvubwi
p6103
aVnde
p6104
aVchalera
p6105
aVokakamiza
p6106
aVtepa
p6107
aVkaulimbo
p6108
aVchatepa
p6109
aVkukakamizidwa
p6110
aVowa
p6111
aVndbwino
p6112
aVkalokwe
p6113
aVkholo
p6114
aVintervention
p6115
aVamava
p6116
aVnyongani
p6117
aVamapeweka
p6118
aVintellengence
p6119
aVmtosen
p6120
aVapitirize
p6121
aVtambala
p6122
aVchinkhwiko
p6123
aVlilogwe
p6124
aVamavu
p6125
aVasanankhweme
p6126
aVdwino
p6127
aVakuvuta
p6128
aVidrisa
p6129
aVthoko
p6130
aVpottery
p6131
aVngatiwalephelawankulukuthet
p6132
aVakakhalathawi
p6133
aVofmaleria
p6134
aVchibwana
p6135
aVilipoyi
p6136
aVmkanthawi
p6137
aVzikuchuluka
p6138
aVlipatsidwe
p6139
aVwacisodzera
p6140
aVwiti
p6141
aVshumbanana
p6142
aVndale
p6143
aVsanthe
p6144
aVzose
p6145
aVkukasungu
p6146
aVagree
p6147
aVyachiwiri
p6148
aVsizaka
p6149
aVzokonda
p6150
aVzophunzitsira
p6151
aVgumba
p6152
aVamayii
p6153
aVamathakutmagazia
p6154
aVsizinakhwime
p6155
aVsudziwika
p6156
aVkwasan
p6157
aValindimankhwala
p6158
aVtailoring
p6159
aVmofulumira
p6160
aVkamende
p6161
aVadzadzidalire
p6162
aVlidzakhala
p6163
aVtimve
p6164
aVmeke
p6165
aVlamawa
p6166
aVkanyama
p6167
aVtchito
p6168
aVtithandize
p6169
aVchilowa
p6170
aVkingsley
p6171
aVwachichepele
p6172
aViyeyo
p6173
aVtsala
p6174
aVzimaonga
p6175
aVatakhalanso
p6176
aVmumango
p6177
aVmalundi
p6178
aVasinedy
p6179
aVmasa
p6180
aVkulilongwe
p6181
aVangatani
p6182
aVchabe
p6183
aVlamakolo
p6184
aVizi
p6185
aVimani
p6186
aVkuopa
p6187
aVchanika
p6188
aVawonjezere
p6189
aVbcs
p6190
atp6191
Rp6192
sVEnglish
p6193
g2
((lp6194
Vdrnkng
p6195
aVmny
p6196
aVtodays
p6197
aVcaused
p6198
aVshansha
p6199
aVsurdenly
p6200
aVtomorrows
p6201
aVkillers
p6202
aVyamasila
p6203
aVmiyoba
p6204
aVmusonda
p6205
aVliter
p6206
aVpple
p6207
aVgetrud
p6208
aVmedicine
p6209
aVevery
p6210
aVfall
p6211
aVaffect
p6212
aVkeny
p6213
aV_sometime
p6214
aVgotia
p6215
aVcipana
p6216
aVten
p6217
aVtired
p6218
aVmedecen
p6219
aVfurther
p6220
aVeven
p6221
aVmariages
p6222
aVdeases
p6223
aVilliness
p6224
aVmunet
p6225
aVprodect
p6226
aVabove
p6227
aVfrank
p6228
aVeverlasting
p6229
aVenviromnt
p6230
aVlitters
p6231
aVempower
p6232
aVching
p6233
aVgetrude
p6234
aVtiserumo
p6235
aVnawakwi
p6236
aVgashi
p6237
aVrsonel
p6238
aVexperience
p6239
aVagatha
p6240
aVmnkhanya
p6241
aVchanges
p6242
aVbiodegradable
p6243
aVveronica
p6244
aVreliase
p6245
aVtakes
p6246
aVtwn
p6247
aVaaron
p6248
aVbicoz
p6249
aVdnt
p6250
aVkalino
p6251
aVcall
p6252
aVsarat
p6253
aVuntil
p6254
aVbringz
p6255
aVlemzmpongwe
p6256
aVlumdaz
p6257
aVaware
p6258
aVmosban
p6259
aVtested
p6260
aVdey
p6261
aVmalelia
p6262
aVgershom
p6263
aVabandon
p6264
aVnyambi0
p6265
aVbeautiful
p6266
aVdinho
p6267
aVaccept
p6268
aVwoman
p6269
aVafta
p6270
aVfadales
p6271
aVssenkusu
p6272
aVstil
p6273
aVend
p6274
aVprovide
p6275
aViribe
p6276
aVwrong
p6277
aVrefuse
p6278
aVshort
p6279
aVeats
p6280
aVmaintain
p6281
aVresponsibility
p6282
aVgreed
p6283
aVinfant
p6284
aVkazala
p6285
aVdeveloped
p6286
aVover
p6287
aVnavutica
p6288
aVdstrct
p6289
aVsuffer
p6290
aVdont
p6291
aVmpiya
p6292
aVpersonal
p6293
aVhygien
p6294
aVmagoyo
p6295
aVthnk
p6296
aVgoog
p6297
aVsomeone
p6298
aVaffected
p6299
aVbreak
p6300
aVsections
p6301
aVeffects
p6302
aVthev
p6303
aVther
p6304
aVinstructions
p6305
aVeasily
p6306
aVweni
p6307
aValways
p6308
aV4got
p6309
aVunlik
p6310
aV45yrs
p6311
aVherald
p6312
aVside
p6313
aVmean
p6314
aVtiyese
p6315
aVharm
p6316
aVeveryone
p6317
aVfinancial
p6318
aVgeneration
p6319
aVmanythings
p6320
aVgireya
p6321
aVgating
p6322
aVmerii
p6323
aVkadundo
p6324
aVlolo
p6325
aVenviroment
p6326
aV18yrs
p6327
aVissue
p6328
aVkilng
p6329
aVput
p6330
aVrapheal
p6331
aVnthani
p6332
aVespected
p6333
aValready
p6334
aVawise
p6335
aVbreakages
p6336
aVdone
p6337
aVanother
p6338
aVtimothy
p6339
aVstory
p6340
aVtop
p6341
aVgyacobo
p6342
aVkoz
p6343
aVdaet
p6344
aVticito
p6345
aVpepabags
p6346
aVmalaria_it
p6347
aVpart
p6348
aVwhyson
p6349
aVgovrmet
p6350
aVrawi
p6351
aVdistance
p6352
aVmatter
p6353
aVtreated
p6354
aVchasanda
p6355
aVpalace
p6356
aVgals
p6357
aVnbc
p6358
aVbeause
p6359
aVforced
p6360
aVjubeva
p6361
aVstigmatized
p6362
aVespecialy
p6363
aVlabour
p6364
aVchizowe
p6365
aVonyona
p6366
aVnani
p6367
aVthough
p6368
aVpark
p6369
aVshoza
p6370
aVmost
p6371
aVvirus
p6372
aVchibolya
p6373
aVadeadly
p6374
aVrhc
p6375
aVkabvuma
p6376
aVchidambo
p6377
aVmobile
p6378
aVsum
p6379
aVjuliana
p6380
aVending
p6381
aVearth
p6382
aVluya
p6383
aVamojo
p6384
aVadzi
p6385
aVcell
p6386
aVtouches
p6387
aVcircle
p6388
aVbusa
p6389
aVbizaliel
p6390
aVluke
p6391
aVbanned
p6392
aVgainz
p6393
aVfastest
p6394
aVkacakwala
p6395
aVabele
p6396
aVenemy
p6397
aVchiwe
p6398
aVregularlly
p6399
aVmedicines
p6400
aVbad
p6401
aVsinaipezeko
p6402
aVanze
p6403
aVisolation
p6404
aVthrowing
p6405
aValorts
p6406
aVsex
p6407
aVfelisters
p6408
aVclen
p6409
aVresult
p6410
aVsaid
p6411
aVdirtynes
p6412
aVvisiting
p6413
aVplease
p6414
aVwon
p6415
aVvarious
p6416
aVavailable
p6417
aVprobrem
p6418
aVcariers
p6419
aVmen
p6420
aVquire
p6421
aVnature
p6422
aVignorance
p6423
aVjakablack
p6424
aVcos
p6425
aVpits
p6426
aVmwelwa
p6427
aVtaferansoni
p6428
aVmedicene
p6429
aVsimple
p6430
aVkasenengwa
p6431
aVdistroy
p6432
aVtrust
p6433
aVpublishing
p6434
aVzizo
p6435
aVokanja
p6436
aVquickly
p6437
aVkatopola
p6438
aVonyinge
p6439
aVukugona
p6440
aVrepacation
p6441
aVbaadaye
p6442
aValthou
p6443
aVdrugs
p6444
aVinfect
p6445
aVgal
p6446
aVlives
p6447
aVpersonally
p6448
aVapplied
p6449
aVharms
p6450
aVlook
p6451
aVpresidency
p6452
aVtreatmemt
p6453
aVwhile
p6454
aVserai
p6455
aVaid
p6456
aVproperty
p6457
aVmicembo
p6458
aVsucces
p6459
aVcostly
p6460
aVmlanzi
p6461
aVuzapola
p6462
aVchikando
p6463
aVkashobondo
p6464
aVmaparos
p6465
aVrasta
p6466
aVdesturb
p6467
aVluangwa
p6468
aVintended
p6469
aVwho
p6470
aVhavn
p6471
aVnavibe
p6472
aVlikose
p6473
aVester
p6474
aVbarned
p6475
aVnundwe
p6476
aVyesterday
p6477
aVsudenly
p6478
aVmwadzidzidzi
p6479
aVkil
p6480
aVkno
p6481
aVsiliver
p6482
aVkamine
p6483
aVcheep
p6484
aVperson
p6485
aVgreatest
p6486
aVprevention
p6487
aVabstain
p6488
aVmalesi
p6489
aVjust
p6490
aVjusy
p6491
aVglita
p6492
aVthanks
p6493
aVemeldah
p6494
aVusing
p6495
aValternative
p6496
aVyet
p6497
aVwitin
p6498
aVnjarazi
p6499
aVjosh
p6500
aVsource
p6501
aVdreams
p6502
aVinnocent
p6503
aVsorondings
p6504
aVmayo
p6505
aVtransmit
p6506
aVsuffering
p6507
aVbirth
p6508
aVgovt
p6509
aValida
p6510
aVbiodegradeble
p6511
aVinabamba
p6512
aVnebat
p6513
aVmbalame
p6514
aVthole
p6515
aVfwana
p6516
aVkwasi
p6517
aVshowgrounds
p6518
aVsearious
p6519
aVcnt
p6520
aVtotaly
p6521
aVmedi
p6522
aVper
p6523
aVcompletly
p6524
aVprob
p6525
aVneatly
p6526
aVpatient
p6527
aVkam
p6528
aVcarol
p6529
aVchamanda
p6530
aVmonths
p6531
aVunknowngly
p6532
aVmagazini
p6533
aVnyamanga
p6534
aVkasamanda
p6535
aVsos
p6536
aVackson
p6537
aVobety
p6538
aVcompanz
p6539
aVodhinane
p6540
aVbkoz
p6541
aVwarned
p6542
aVmadecin
p6543
aVknowing
p6544
aVkunda
p6545
aVinfected
p6546
aVseveriano
p6547
aVwat
p6548
aVwas
p6549
aVmkangala
p6550
aVbecoming
p6551
aVuncle
p6552
aVmigosi
p6553
aVstrugle
p6554
aVjoembee
p6555
aVdowry
p6556
aVthroug
p6557
aVcalled
p6558
aVroney
p6559
aVmedication
p6560
aVyagi
p6561
aVkayoo
p6562
aVfaithful
p6563
aVtil
p6564
aVnico
p6565
aVmwanakashi
p6566
aV2buy
p6567
aVkapirimphika
p6568
aVsenstisation
p6569
aVmwami
p6570
aVdied
p6571
aVlufeyo
p6572
aVgrief
p6573
aVsuffers
p6574
aVmwinda
p6575
aVdesease
p6576
aVjustus
p6577
aVtogether
p6578
aVdespose
p6579
aVserious
p6580
aVhaving
p6581
aVonce
p6582
aVunavoidable
p6583
aVmutilansembe
p6584
aVfocus
p6585
aVissues
p6586
aVmaseko
p6587
aVenvironment
p6588
aVfinally
p6589
aVhelps
p6590
aVchanida
p6591
aVwilison
p6592
aVgarden
p6593
aVchoice
p6594
aVlevel
p6595
aVuncurable
p6596
aVdie
p6597
aVgul
p6598
aVchilekati
p6599
aVcronical
p6600
aVawoman
p6601
aVprevent
p6602
aVmwanjawanthu
p6603
aVchipembe
p6604
aVdiscover
p6605
aVsayg
p6606
aVbecovse
p6607
aVokina
p6608
aVdepression
p6609
aVcontracted
p6610
aVfavour
p6611
aVaccess
p6612
aVarvs
p6613
aVfalling
p6614
aVmela
p6615
aV1010
p6616
aVamale
p6617
aVwater
p6618
aVpoverty
p6619
aVirritating
p6620
aVchange
p6621
aVacalling
p6622
aVreceive
p6623
aVbording
p6624
aVmakes
p6625
aVuseful
p6626
aVmanage
p6627
aVprefer
p6628
aVrchn
p6629
aVplance
p6630
aVmbinga
p6631
aVthre
p6632
aVfew
p6633
aVtoday
p6634
aVmalar
p6635
aVafford
p6636
aVevrydy
p6637
aVmadega
p6638
aVsroly
p6639
aVlumezi
p6640
aVdemerits
p6641
aVamboga
p6642
aVgetting
p6643
aVaperson
p6644
aVsh0ud
p6645
aVmwaume
p6646
aVchip
p6647
aVcouncil
p6648
aVserial
p6649
aVsakaka
p6650
aVspreads
p6651
aVdurng
p6652
aVimmune
p6653
aVlameck
p6654
aVinstead
p6655
aVmaternal
p6656
aVstop
p6657
aVspot
p6658
aVjuve
p6659
aVstress
p6660
aVmuguze
p6661
aVscool
p6662
aVsinkamba
p6663
aVlazzy
p6664
aVallow
p6665
aVakiller
p6666
aVdeposted
p6667
aVaply
p6668
aVlsk
p6669
aVkwamudhi
p6670
aVdoent
p6671
aVkakiri
p6672
aVbecuse
p6673
aVcomplicate
p6674
aVpolice
p6675
aVdecay
p6676
aVnon
p6677
aVdat
p6678
aVmulenga
p6679
aVmomo
p6680
aVkilled
p6681
aVhalo
p6682
aVlindiwe
p6683
aV2cary
p6684
aVmthilans
p6685
aVcountries
p6686
aVchimwe_mwe
p6687
aVmadzimawi
p6688
aVfired
p6689
aVyear
p6690
aVabbygirl
p6691
aVacumulated
p6692
aVwick
p6693
aVquare
p6694
aVcary
p6695
aVundi
p6696
aVadvantages
p6697
aVcurable
p6698
aVawelo
p6699
aVcured
p6700
aVhilled
p6701
aVdavis
p6702
aVthink
p6703
aVnsimbo
p6704
aVowned
p6705
aVcarry
p6706
aVimpossible
p6707
aVmessage
p6708
aVyourselt
p6709
aVian
p6710
aVdump
p6711
aVmigth
p6712
aV_bag
p6713
aVpersion
p6714
aVwhite
p6715
aVrigt
p6716
aVmostly
p6717
aVvllage
p6718
aVcostantino
p6719
aVmitunda
p6720
aVgik
p6721
aVlisteners
p6722
aVcureable
p6723
aVinffected
p6724
aVsay
p6725
aVans
p6726
aVany
p6727
aVcomplete
p6728
aVable
p6729
aVsaffering
p6730
aVwch
p6731
aVmartha
p6732
aVchioza
p6733
aVpain
p6734
aVharmful
p6735
aVthngs
p6736
aVforever
p6737
aVinfections
p6738
aVenvaloment
p6739
aVshot
p6740
aVcornel
p6741
aVdiscovered
p6742
aVjastin
p6743
aVplanning
p6744
aVlonger
p6745
aVpartners
p6746
aVslow
p6747
aVikonyowa
p6748
aVchato
p6749
aVndambwe
p6750
aVkamuchele
p6751
aVregularly
p6752
aVrepu
p6753
aVpunishiment
p6754
aVssp
p6755
aVmission
p6756
aVcannot
p6757
aVcontractd
p6758
aVbrain
p6759
aVmishoro
p6760
aVmorning
p6761
aVavoidable
p6762
aVpimo
p6763
aVwhere
p6764
aVhusband
p6765
aVgrag
p6766
aVoppotunity
p6767
aVmerits
p6768
aVstigma
p6769
aVincurable
p6770
aVguided
p6771
aVmabuululu
p6772
aVmthunzi
p6773
aVsleepin
p6774
aVways
p6775
aVpattern
p6776
aVmanjanja
p6777
aVkanyinji
p6778
aVstate
p6779
aVkacigamba
p6780
aVdiesease
p6781
aV10tyms
p6782
aVjobs
p6783
aVaugust
p6784
aVvry
p6785
aVbix
p6786
aVmosquitos
p6787
aVkilling
p6788
aVdumisani
p6789
aVspare
p6790
aVchachi
p6791
aVposetive
p6792
aVreaction
p6793
aVmedicen
p6794
aVmwanjawamthu
p6795
aVtaking
p6796
aVramuro
p6797
aVkafulafula
p6798
aVcomes
p6799
aVnyimsa
p6800
aVatacked
p6801
aVdaniels
p6802
aVperiod
p6803
aVunsable
p6804
aVhakuna
p6805
aVmoreover
p6806
aVirresiponsible
p6807
aVslowly
p6808
aVtreat
p6809
aVenable
p6810
aVformer
p6811
aVthose
p6812
aVbukama
p6813
aVmain
p6814
aVthese
p6815
aVempolyment
p6816
aVungathe
p6817
aValmost
p6818
aVbrot
p6819
aVharambee
p6820
aVmpongwe
p6821
aVclaimed
p6822
aVeveryday
p6823
aVsame
p6824
aVrubish
p6825
aVdigital
p6826
aVweek
p6827
aVyakuph
p6828
aVdisadvantages
p6829
aVextention
p6830
aVplastcs
p6831
aVngwane
p6832
aVstudent
p6833
aVsisters
p6834
aVkuzemba
p6835
aVwithout
p6836
aV2aids
p6837
aVzatekorpe
p6838
aVreintroduce
p6839
aVabstened
p6840
aVmeleria
p6841
aVbeing
p6842
aVmoney
p6843
aVchisha
p6844
aVkils
p6845
aVdieses
p6846
aVagness
p6847
aVngizano
p6848
aVkwoyo
p6849
aValiech
p6850
aVshadrach
p6851
aVknew
p6852
aVtreatment
p6853
aVjefrey
p6854
aVuncureable
p6855
aVcaptivating
p6856
aVmarelia
p6857
aVnandy
p6858
aVgirlchild
p6859
aVmuseveni
p6860
aVpapers
p6861
aVwhts
p6862
aVkillz
p6863
aVdislve
p6864
aVpst
p6865
aVlost
p6866
aVenerst
p6867
aVkalulu
p6868
aVparasite
p6869
aVeither
p6870
aVlose
p6871
aVreplacement
p6872
aVfulfil
p6873
aVburdens
p6874
aVopose
p6875
aVproper
p6876
aVinocent
p6877
aVlead
p6878
aVesy
p6879
aVhofmeyr
p6880
aVleav
p6881
aVtabwelanso
p6882
aVdestroys
p6883
aVscientific
p6884
aVmiti
p6885
aVabout
p6886
aVworld
p6887
aVatiglinyi
p6888
aVchison
p6889
aVmodester
p6890
aVbecozi
p6891
aVcrure
p6892
aVkatalira
p6893
aVprisca
p6894
aVsitambuli
p6895
aVchronic
p6896
aVmariage
p6897
aVknowngly
p6898
aVibwera
p6899
aVkawemba
p6900
aVmorover
p6901
aVatack
p6902
aVregard
p6903
aVshana
p6904
aVdelayed
p6905
aVmodwaro
p6906
aVafast
p6907
aVmade
p6908
aVplaces
p6909
aVnoon
p6910
aVdangerous
p6911
aVpempho
p6912
aVbelow
p6913
aVempty
p6914
aVinfants
p6915
aVtrips
p6916
aVstrongly
p6917
aVdeaths
p6918
aVcolege
p6919
aVnavuberg
p6920
aVagain
p6921
aVcompared
p6922
aVdeadly
p6923
aVrepent
p6924
aVsick
p6925
aVsomeones
p6926
aVloveness
p6927
aVchiluzi
p6928
aVjune
p6929
aVemusa
p6930
aVspouse
p6931
aVwife
p6932
aVkeepng
p6933
aVdangarous
p6934
aVhamful
p6935
aVstatus
p6936
aValright
p6937
aVgeofrey
p6938
atp6939
Rp6940
s.