(dp0
VSwahili
p1
c__builtin__
set
p2
((lp3
Vsimu
p4
aVkweli
p5
aVwatoto
p6
aVvitu
p7
aVmengi
p8
aV0901006666
p9
aVmengine
p10
aVmwaya
p11
aVmlafu
p12
aVkukupa
p13
aVkutoka
p14
aVujumbe
p15
aVgavile
p16
aVidete
p17
aVkutumia
p18
aVjibu
p19
aVking
p20
aVshilingi
p21
aVsh200
p22
aVkuigiza
p23
aVwalambo
p24
aV15354
p25
aVmfuk0
p26
aVkike
p27
aVbro
p28
aVnaomba
p29
aVtuma
p30
aVkuhusu
p31
aVmpya
p32
aVvingi
p33
aVnimepata
p34
aVuhuru
p35
aVsana
p36
aVvidogovidogo
p37
aVmchemwa
p38
aVwenu
p39
aVinatusaidia
p40
aVumri
p41
aVjofela
p42
aVlipo
p43
aVulimwengu
p44
aVdakika
p45
aVkilolo
p46
aVkwenda
p47
aVmawaidha
p48
aVmunafanya
p49
aVmwanaid
p50
aVnampenda
p51
aVwaswahili
p52
aVwangu
p53
aVyako
p54
aVmifugo
p55
aVasante
p56
aVbure
p57
aVneno
p58
aVwatanzania
p59
aVtalafa
p60
aVrehema
p61
aVmartin
p62
aVwanasema
p63
aVwenye
p64
aVmimi
p65
aV107
p66
aVnickson
p67
aVkagoje
p68
aVupate
p69
aVvifurushi
p70
aVlisemwalo
p71
aVmweka
p72
aVsanga
p73
aVkwa
p74
aVndio
p75
aVrambo
p76
aVndiy0
p77
aVmifuko
p78
aViringa
p79
aVwengine
p80
aVdown
p81
aVyosia
p82
aVunaowajua
p83
aVenyi
p84
aVpoa
p85
aVmke
p86
aVfrom
p87
aVlambo
p88
aVikawa
p89
aVmarafiki
p90
aVkubebea
p91
aVjoseph
p92
aVifakara
p93
aVbaba
p94
aVtaarifa
p95
aVkulingana
p96
aV0901005555
p97
aVmfuko
p98
aVwababa
p99
aVifakala
p100
aVndiyo
p101
aVkifurushi
p102
aVnaitwa
p103
aVkusikiliza
p104
aVjirushesiku
p105
aVmufuko
p106
aVmatumizi
p107
aVlabda
p108
aVkuchagua
p109
aVupumbavu
p110
aVusiku
p111
aVairtel
p112
aVkinachokufaa
p113
aV2richard
p114
aVtanzania
p115
aVomari
p116
aVjirushe
p117
aVdili
p118
aVsauti
p119
aVhawawezi
p120
aVgombe
p121
aVpia
p122
aVkupata
p123
aVunaumuhimu
p124
aVjulias
p125
aVtuache
p126
aVsekondari
p127
aVnipo
p128
aVatie
p129
aVwamama
p130
aVkumsingizia
p131
aVufurahie
p132
aVmbona
p133
aVkafanya
p134
aVkikristo
p135
aVuislam
p136
aVmnawaacha
p137
aVpiga
p138
aVmwalimu
p139
aVwapya
p140
aS'swaraj'
p141
aVapana
p142
aVkupiga
p143
aVwakiume
p144
aVkizee
p145
aV0901004444
p146
aVmorogro
p147
aVyangu
p148
aVwatu
p149
aVmwambola
p150
aVvimeboreshwa
p151
aVkubadirisha
p152
aVkwasababu
p153
aVvya
p154
aVsasa
p155
aVnaweza
p156
aVhapana
p157
atp158
Rp159
sVPortuguese
p160
g2
((lp161
Vvila
p162
aVunica
p163
aVfica
p164
aVmorer
p165
aVsms
p166
aVessas
p167
aVdanca
p168
aVunico
p169
aVfrondoza
p170
aVpreucupado
p171
aVmenor
p172
aVmenos
p173
aVpauca
p174
aVpbreza
p175
aVcorpo
p176
aVseus
p177
aVleite
p178
aVpobreza
p179
aVzona
p180
aVpedro
p181
aVver
p182
aVnhamatanda
p183
aVmarcos
p184
aVcresc
p185
aVtais
p186
aVintelezente
p187
aVvee
p188
aVelias
p189
aVabra
p190
aVdassa
p191
aVsuite
p192
aVvel
p193
aVvem
p194
aVsegund
p195
aVolho
p196
aVcrito
p197
aVdela
p198
aVmelhorar
p199
aVcasamento
p200
aVerensto
p201
aVfar
p202
aVfuturos
p203
aVnhama
p204
aVproduem
p205
aVmiquitaio
p206
aVvera
p207
aVfidelidade
p208
aVopiniao
p209
aVfam
p210
aVcasa
p211
aVfala
p212
aVferiz
p213
aVtenesse
p214
aVcmo
p215
aVxtudr
p216
aVnona
p217
aVvelar
p218
aVextudo
p219
aVinexperad
p220
aVinacio
p221
aVamilton
p222
aVofichal
p223
aVdiz
p224
aVcomprment
p225
aVmundial
p226
aVcompetentes
p227
aVmonecera
p228
aVopcao
p229
aVrocotol
p230
aVhora
p231
aVpork
p232
aVtem
p233
aVexperansa
p234
aVguita
p235
aVneste
p236
aVjacinto
p237
aVclaudio
p238
aVmatucudor
p239
aVtenesse_nhambondo
p240
aVporq
p241
aVporp
p242
aVter
p243
aVsituacao
p244
aVvitimas
p245
aVnem
p246
aVeduaro
p247
aVtipo
p248
aVmanthando
p249
aVcorrer
p250
aV00horasmas
p251
aVsintomas
p252
aVcelestina
p253
aVescola
p254
aVapedir
p255
aVchota
p256
aVcaitano
p257
aVdeles
p258
aVzacariasreceio
p259
aVvisinho
p260
aVprqui
p261
aVdias
p262
aVvamos
p263
aVzondane
p264
aVmauricio
p265
aVbenjami
p266
aVtsussicana
p267
aVirmaos
p268
aVapaltil
p269
aVmndlane
p270
aVoproximo
p271
aVmeu
p272
aVler
p273
aVmelhor
p274
aVpreparar
p275
aVmes
p276
aVluis
p277
aValberto
p278
aVves
p279
aVzinho
p280
aVdisvio
p281
aVtver
p282
aVcidade
p283
aVcoracao
p284
aVresidente
p285
aVavante
p286
aVchinha
p287
aVaminha
p288
aVevitar
p289
aVaki
p290
aVfemea
p291
aVestrutura
p292
aVbom
p293
aVsocial
p294
aVdirectment
p295
aVnhmssngora
p296
aVobrigado
p297
aVchana
p298
aVrafael
p299
aVfransao
p300
aVjulio
p301
aVelevado
p302
aVbaptista
p303
aVestudari
p304
aVkumwa
p305
aVafrica
p306
aVestudos
p307
aVmenina
p308
aVentrar
p309
aVhumberto
p310
aVrefugio
p311
aVcasare
p312
aVoutra
p313
aVpesar
p314
aVcasari
p315
aVfrasao
p316
aVidade
p317
aVmairosse
p318
aVfamila
p319
aVarrepndimnto
p320
aVando
p321
aVenfermeiro
p322
aVobrigar
p323
aVcatique
p324
aVfel
p325
aVpatrocinador
p326
aVgero
p327
aVcodado
p328
aVmetuchira
p329
aVmarido
p330
aVpur
p331
aVines
p332
aVdificuldads
p333
aVbeatriz
p334
aVaut
p335
aVsort
p336
aVmarcheira
p337
aVcontaminar
p338
aVxta
p339
aVcontinuar
p340
aVoscar
p341
aVreceo
p342
aVmalax
p343
aVrecei
p344
aVate
p345
aVpequena
p346
aVsra
p347
aVpretendente
p348
aVcontinual
p349
aVamelia
p350
aVpalavra
p351
aVpouco
p352
aVgarantir
p353
aVfredy
p354
aVmagara
p355
aVraposo
p356
aVemcontrar
p357
aVabensoa
p358
aVsustemtar
p359
aVsalvador
p360
aVdistruind
p361
aVpremeturo
p362
aVgabriel
p363
aVchacanza
p364
aVasunt
p365
aVdev
p366
aValeixo
p367
aVestdar
p368
aVestudo
p369
aVera
p370
aVaumenta
p371
aVinsistir
p372
aV24hor
p373
aVbajaj
p374
aVdevecazari
p375
aVfaz
p376
aVnada
p377
aVtirar
p378
aVestudante
p379
aVboa
p380
aVsergio
p381
aVculad
p382
aVconstruir
p383
aVmenr
p384
aVcaminho
p385
aVvoces
p386
aVsinta
p387
aVuai
p388
aVconcordar
p389
aVsogra
p390
aVabaixa
p391
aVdeveria
p392
aVdiminui
p393
aVfamlia
p394
aVswega
p395
aVanexa
p396
aVcolega
p397
aVestudar
p398
aVdura
p399
aVagina
p400
aVsegudo
p401
aVcasada
p402
aVvelario
p403
aVaument
p404
aVligar
p405
aVmorte
p406
aVcasal
p407
aVpurk
p408
aVprqu
p409
aVconfia
p410
aVria
p411
aVsio
p412
aVtiago
p413
aVsim
p414
aVmap
p415
aVmas
p416
aVmar
p417
aVleceo
p418
aVatan
p419
aVprimeiro
p420
aVsoqui
p421
aVhemem
p422
aVfracao
p423
aVeterna
p424
aVdelcio
p425
aVinternato
p426
aVsexualmente
p427
aVirmazinhas
p428
aVmurombodzi
p429
aVmae
p430
aVseda
p431
aVfars
p432
aVmai
p433
aVmesa
p434
aVsedo
p435
aVmal
p436
aVlar
p437
aVcorega
p438
aValdeia
p439
aVlhe
p440
aVporqe
p441
aVmortes
p442
aVdeve
p443
aVruminha
p444
aVisso
p445
aVideia
p446
aVpassado
p447
aVinveste
p448
aVesudar
p449
aVestude
p450
aVconsientemente
p451
aVgrande
p452
aVestuda
p453
aVbairo
p454
aVculpada
p455
aVqueniasse
p456
aVcotinua
p457
aVsintoma
p458
aVreceamos
p459
aVturma
p460
aVa02
p461
aVsenhora
p462
aVcandido
p463
aVigonore
p464
aVcambota
p465
aVsive
p466
aVsantinha
p467
aVisaquel
p468
aVdoenc
p469
aVjeque
p470
aVmais
p471
aV1classe
p472
aVgente
p473
aVaconselho
p474
aVigrja
p475
aVsobrinhos
p476
aVricardo
p477
aVpara
p478
aVmilhares
p479
aVsemple
p480
aVstrado
p481
aVxcola
p482
aVporquem
p483
aVmusica
p484
aVesem
p485
aVvida
p486
aVfim
p487
aVtimoteo
p488
aVapobleza
p489
aVnervo
p490
aVpurque
p491
aVqorqeu
p492
aVenfentada
p493
aVdal
p494
aVcrase
p495
aVdan
p496
aVrepodio
p497
aVnoa
p498
aVdevem
p499
aVmorim
p500
aVdeves
p501
aVmore
p502
aVceu
p503
aVdesenvolda
p504
aVolivia
p505
aVernesto
p506
aVdar
p507
aVdas
p508
aVnhancuco
p509
aVdesgrassa
p510
aVcunhadinhas
p511
aVmwana
p512
aVdelas
p513
aVmaquina
p514
aVnos
p515
aVimportante
p516
aVcazar
p517
aVsenhor
p518
aVfirmina
p519
aVdiscordo
p520
aVjames
p521
aVatuantes
p522
aVpobre
p523
aVtera
p524
aVporta
p525
aVtsuassicana
p526
aVmensagem
p527
aVderepente
p528
aVsida
p529
aVvidas
p530
aVfonte
p531
aVcarlos
p532
aVmodo
p533
aVnava
p534
aVfenando
p535
aVjinada
p536
aVliga
p537
aVcorejo
p538
aVconcord
p539
aVdexe
p540
aVcompromete
p541
aVdera
p542
aVaida
p543
aV24h
p544
aVdia
p545
aVprocurar
p546
aVmulher
p547
aVassinate
p548
aVrelacao
p549
aVlogo
p550
aVdesgraca
p551
aVnossa
p552
aVmorta
p553
aVnosso
p554
aVhenrique
p555
aVmuera
p556
aVsinao
p557
aVnunca
p558
aVmodina
p559
aVmatar
p560
aVpretndent
p561
aVdaniel
p562
aVnadica
p563
aVmata
p564
aVcausa
p565
aVleopoldina
p566
aVstela
p567
aVleceio
p568
aVmuinga
p569
aVnovo
p570
aVtenesse_nhambondn
p571
aVapatr
p572
aVpreguicosa
p573
aValguem
p574
aVseguranca
p575
aVtempo
p576
aVsabado
p577
aVfred
p578
aVbase
p579
aVque
p580
aVaceita
p581
aValuna
p582
aVqui
p583
aVimprovisar
p584
aVbelarmino
p585
aVjeremias
p586
aVinok
p587
aVanselmo
p588
aVfrend
p589
aVzeca
p590
aVbitone
p591
aVnhankulupini
p592
aVpaulinoaraujo
p593
aVenlutar
p594
aVisaque
p595
aVrinda
p596
aViso
p597
aVcomando
p598
aVespecial
p599
aVnhamadze
p600
aVaos
p601
aVtivesse
p602
aVrecio
p603
aVnhamisongora
p604
aVanita
p605
aVgermias
p606
aVnhe
p607
aVforca
p608
aVcossequencia
p609
aVapenas
p610
aVkarlos
p611
aVvizinho
p612
aVhelton
p613
aVmingo
p614
aVjesus
p615
aVdona
p616
aVcada
p617
aVunomwa
p618
aVmeninado
p619
aVleva
p620
aVser
p621
aVdescaregar
p622
aVenquanto
p623
aVnome
p624
aVtomane
p625
aVtraicoa
p626
aVmovitel
p627
aVcontra
p628
aVmabatiro
p629
aVinocentes
p630
aVporquie
p631
aVmadibe
p632
aVmaulicio
p633
aVhaver
p634
aVexistente
p635
aVtsiquir
p636
aVmariana
p637
aVquando
p638
aVbingala
p639
aVaceitar
p640
aVdeva
p641
aVasituac
p642
aVporki
p643
aVcrianca
p644
aVdigo
p645
aVincur
p646
aVfazer
p647
aVchitunga
p648
aVenkuando
p649
aVpatronato
p650
aVgraca
p651
aVestodar
p652
aVernerto
p653
aVlucas
p654
aVmomentoa
p655
aVmatikiti
p656
aVhortencio
p657
aVfevereiro
p658
aVsta
p659
aVbem
p660
aVamanha
p661
aVmussa
p662
aVdai
p663
aVaccao
p664
aVaumentar
p665
aV24horas
p666
aVsera
p667
aVfuturo
p668
aVfausto
p669
aVkuand
p670
aVpaulino
p671
aV820015
p672
aVclasse
p673
aVpra
p674
aVesta
p675
aVeugenia
p676
aVpssoa
p677
aVnovas
p678
aVdevo
p679
aV867896571
p680
aVano
p681
aVpdem
p682
aVprk
p683
aVsembero
p684
aVzuma
p685
aVprq
p686
aVmateu
p687
aVavida
p688
aVdedicando
p689
aVmatucudur
p690
aVdexar
p691
aVsau
p692
aVjeruzarem
p693
aVcherene
p694
aVponder
p695
aVfalares
p696
aVsegundo
p697
aVsoltucao
p698
aVlil
p699
aVdeixando
p700
aVdeue
p701
aVviolar
p702
aVmalta
p703
aVisto
p704
aVagraca
p705
aVtratado
p706
aVluisa
p707
aVrecebeu
p708
aVcida
p709
aVcazada
p710
aVvictor
p711
aVtratada
p712
aVdeus
p713
aVganha
p714
aVmolher
p715
aVamae
p716
aVnivel
p717
aVchaibande
p718
aVestevao
p719
aVpicada
p720
aVamai
p721
aVtrasmetido
p722
aVnumero
p723
aVpodera
p724
aVessa
p725
aVdoeca
p726
aVbussete
p727
aVamerico
p728
aVnhandoa
p729
aVsandra
p730
aVpais
p731
aVhumanas
p732
aVmedicamento
p733
aVdxtino
p734
aVmaria
p735
aVauna
p736
aVtodo
p737
aV5classe
p738
aVsua
p739
aVorfas
p740
aVviolenssa
p741
aVfrederico
p742
aVpermanece
p743
aVasua
p744
aVreusultam
p745
aVpricinpal
p746
aVazinanda
p747
aVaestudal
p748
aVcon
p749
aVsimplesmente
p750
aVvejamos
p751
aVajudaria
p752
aVbrinsiby
p753
aVtsuasicana
p754
aVmuianga
p755
aVsda
p756
aVaraujo
p757
aVreseio
p758
aVpais_lucas
p759
aVisaia
p760
aVolha
p761
aVconhecido
p762
aVzacarias
p763
aVestoa
p764
aVpreciso
p765
aVcharles
p766
aVteresa
p767
aVriqueza
p768
aVelas
p769
aVensinar
p770
aVqualquer
p771
aVradio
p772
aVwiliamo
p773
aVvalito
p774
aVestou
p775
aVmatcudur
p776
aVjencio
p777
aVdurant
p778
aVcristo
p779
aVtofito
p780
aVpensam
p781
aVefetada
p782
aVimfecoes
p783
aVquem
p784
aVouvir
p785
aVcrime
p786
aVrico
p787
aVcaero_matucudur
p788
aVwayne
p789
aVestara
p790
aVperdoa
p791
aVtudo
p792
aVmercerina
p793
aVmercado
p794
aVsoluc
p795
aVabrasso
p796
aVinferior
p797
aVporque
p798
aVmonica
p799
aVcalhar
p800
aValunos
p801
aVnela
p802
aVreseu
p803
aVfamilias
p804
aVsamuel
p805
aVporqui
p806
aVconvive
p807
aVcora
p808
aVjovem
p809
aVbernando
p810
aVgrongosa
p811
aVdificel
p812
aVmassamba
p813
aVmaridos
p814
aVbensoal
p815
aVderas
p816
aVmodlane
p817
aVbeb
p818
aVgravata
p819
aVncia
p820
aVortencia
p821
aValfandica
p822
aVdanito
p823
aVtratamento
p824
aVrenseio
p825
aVquembo
p826
aV24hrs
p827
aVnimgue
p828
aVempreendedora
p829
aVseu
p830
aVmudicua
p831
aVlemcopecalam
p832
aVvino
p833
aVbenedita
p834
aVmalariaporque
p835
aVfilnha
p836
aVpuque
p837
aVhumano
p838
aVnhamssongora
p839
aVgorongosiano
p840
aVubaleathu
p841
aVsou
p842
aVduma
p843
aVsem
p844
aVsel
p845
aVliloca
p846
aVfilipe
p847
aVdepos
p848
aVmario
p849
aVtenh
p850
aVmalaria
p851
aVanssim
p852
aVfazenda
p853
aVestao
p854
aVcomunual
p855
aVteng
p856
aVtend
p857
aVfraccao
p858
aVfavor
p859
aVdestino
p860
aVsiportar
p861
aVmeninas
p862
aVira
p863
aVforcas
p864
aVdonate
p865
aVtndo
p866
aVseple
p867
aVkem
p868
aVjos
p869
aVcobara
p870
aVprofssors
p871
aVpobresa
p872
aVjox
p873
aVlucilo
p874
aVdercio
p875
aVfutura
p876
aVtrabalhar
p877
aVadoenca
p878
aVcula
p879
aVjoa
p880
aVmapombue
p881
aVnenhum
p882
aVtobias
p883
aVcomo
p884
aVtua
p885
aVsolu
p886
aVker
p887
aVlares
p888
aVxpeciais
p889
aVaqui
p890
aVprovocada
p891
aVxtdr
p892
aVpreta
p893
aVadmin
p894
aVresposta
p895
aVfalar
p896
aVanos
p897
aVconseguir
p898
aVeliase
p899
aVcotlnuar
p900
aVpode
p901
aVfacer
p902
aVmarta
p903
aVfilha
p904
aVcom
p905
aVsetembro
p906
aVcomer
p907
aVagente
p908
aVtmome
p909
aVdizem
p910
aVaumentala
p911
aVpessoas
p912
aVsalario
p913
aVazinada
p914
aVpor
p915
aVformacao
p916
aVacabar
p917
aV5mb
p918
aVenviando
p919
aVjogador
p920
aVmanencio
p921
aVsao
p922
aVpod
p923
aVpessoa
p924
aVtodas
p925
aValexamdre
p926
aVamigo
p927
aVquene
p928
aVfra
p929
aVstrong
p930
aVinfeccoes
p931
aVgarntia
p932
aVtama
p933
aVntar
p934
aVtaimo
p935
aVgondola
p936
aVdispacho
p937
aVtorsida
p938
aVdevia
p939
aVjona
p940
aVcrian
p941
aVquia
p942
aVsab
p943
aVtipezene
p944
aVabudala
p945
aVcasar
p946
aVmaioria
p947
aVvictorino
p948
aVajudara
p949
aVtsikir
p950
aVploblemas
p951
aVesto
p952
aVprfssor
p953
aVloja
p954
aVeduardo
p955
aVrepende
p956
aVtsausicana
p957
aVdensenvolda
p958
aVsousabairro
p959
aVpista
p960
aVpedrito
p961
aVmenorer
p962
aVfechar
p963
aVtardado
p964
aVpoqui
p965
aVcase
p966
aVaugusto
p967
aVjaime
p968
aVprematuro
p969
aVencaminha_las
p970
aVfortes
p971
aVcaso
p972
aVcvr
p973
aVdenfend
p974
aV50min
p975
aVencontrar
p976
aVmaxixe
p977
aVmaricheira
p978
aVcaronga
p979
aVngue
p980
aVidad
p981
aVeio
p982
aVhomem
p983
aVgimo
p984
aVacontinuar
p985
aVmoz
p986
aVresident
p987
aVsalmo
p988
aVofuturo
p989
aVnhafuri
p990
aVrapidamente
p991
aVdesgracado
p992
aVdemor
p993
aValuno
p994
aVmesma
p995
aVanophele
p996
aVsust
p997
aVtsuassica
p998
aVtazaronda
p999
aVmesmo
p1000
aVemprego
p1001
aVcausada
p1002
aVsentistas
p1003
aVsantos
p1004
aVajudam
p1005
aVremedio
p1006
aVparte
p1007
aVsemppre
p1008
aVmortais
p1009
aVhoras
p1010
aVpedindo
p1011
aVestrongomeni
p1012
aVpaulo
p1013
aVreceio
p1014
aVriaporque
p1015
aVcuenda
p1016
aVamosse
p1017
aVpai
p1018
aVpurqui
p1019
aVdepede
p1020
aVresorve
p1021
aVtodos
p1022
aVadelino
p1023
aVnio
p1024
aVcezar
p1025
aVgra
p1026
aVbairro
p1027
aVnest
p1028
aVnia
p1029
aVwilson
p1030
aVsisabe
p1031
aVdirector
p1032
aVoportunidade
p1033
aVbinze
p1034
aVescolhe
p1035
aVmestre
p1036
aVesmael
p1037
aVescolha
p1038
aVbob
p1039
aVresdnte
p1040
aVtenho
p1041
aVmbanzer
p1042
aVcosta
p1043
aVvario
p1044
aVet0do
p1045
aVpoderia
p1046
aVrestaurar
p1047
aVrecorrer
p1048
aVginada
p1049
aVpssa
p1050
aVdsenvolve
p1051
aVantonio
p1052
aVsimao
p1053
aVdamiao
p1054
aVcriacao
p1055
aVentrega_las
p1056
aVinpreendedora
p1057
aVaestudar
p1058
aVapartr
p1059
aVnesse
p1060
aVepc
p1061
aVtandike
p1062
aVpense
p1063
aVpromete
p1064
aVchore
p1065
aVant
p1066
aVonde
p1067
aVsalva
p1068
aVlutar
p1069
aVexcessivo
p1070
aVtipos
p1071
aVdomingos
p1072
aVdistino
p1073
aVtard
p1074
aVspeed
p1075
aValternativa
p1076
aVjose
p1077
aVmudara
p1078
aV150sms
p1079
aVtrabalh0
p1080
aVcur
p1081
aVmulungu
p1082
aVmandar
p1083
aVxtudar
p1084
aValegria
p1085
aVela
p1086
aVcontinura
p1087
aVrosa
p1088
aVcntinuar
p1089
aVele
p1090
aVparar
p1091
aVgxtou
p1092
aVade
p1093
aVsofrimento
p1094
aVajudar
p1095
aVaproxima
p1096
aVdoce
p1097
aVhino
p1098
aVceleste
p1099
aVtomas
p1100
aVbolingo
p1101
aVsonia
p1102
aVperigoso
p1103
aVxadreque
p1104
aVraizes
p1105
aValunas
p1106
aVzidane
p1107
aVterminar
p1108
aVvasco
p1109
aVcotinuar
p1110
aVteste
p1111
aVdurante
p1112
aVviver
p1113
aVasnada
p1114
aVdara
p1115
aVpossivel
p1116
aVdesa
p1117
aVbande
p1118
aVaruna
p1119
aVmenma
p1120
aVcontinur
p1121
aVpiorar
p1122
aVarvore
p1123
aVbolso
p1124
aVnhamissongora
p1125
aVmiquicene
p1126
aVoseu
p1127
aVfernando
p1128
aVentidads
p1129
aVjudar
p1130
aVjota
p1131
aVmararia
p1132
aVpois
p1133
aVcontinue
p1134
aVcelio
p1135
aVpropria
p1136
aVponde
p1137
aVadamo
p1138
aVsebastiao
p1139
aVpedir
p1140
aVgervasio
p1141
aVchico
p1142
aVfamilha
p1143
aVjanita
p1144
aVajuda_las
p1145
aVwww
p1146
aVpaulina
p1147
aVcomados
p1148
aVnuma
p1149
aVeducacao
p1150
aVforme
p1151
aVestes
p1152
aVlocutor
p1153
aVfalado
p1154
aVante
p1155
aVadministrador
p1156
aVdepois
p1157
aVsetebro
p1158
aVpala
p1159
aVstar
p1160
aVsofre
p1161
aVajinada
p1162
aVmassada
p1163
aVjoao
p1164
aVmioda
p1165
aVmaos
p1166
aVticha
p1167
aVsquante
p1168
aVest
p1169
aVterminam
p1170
aVfor
p1171
aVconcluir
p1172
aVzeferino
p1173
aVmorere
p1174
aVchamome
p1175
aVhoje
p1176
aVmedo
p1177
aVdoen
p1178
aVtequi
p1179
aVmuito
p1180
aVpelo
p1181
aVmaezinha
p1182
aVuma
p1183
aVchegara
p1184
aVpromta
p1185
aVprof
p1186
aVrale
p1187
aVcsar
p1188
aVpela
p1189
aVcudzo
p1190
aVcomtinua
p1191
aVmuita
p1192
aVlucas_nhambondo
p1193
aVqueremos
p1194
aVmanta
p1195
aVmateus
p1196
aVtarkinho
p1197
aVjuntamente
p1198
aVsustentara
p1199
aVtda
p1200
aVcontinua
p1201
aVentelegente
p1202
aVmuitax
p1203
aVlobolo
p1204
aVdirepente
p1205
aVsalgar
p1206
aVsanta
p1207
aVmantr
p1208
aVsanto
p1209
aVcondicoes
p1210
aVvictoria
p1211
aVjohane
p1212
aVprecisa
p1213
aVsolucao
p1214
aVgaranto
p1215
aVmorre
p1216
aVainda
p1217
aVmangra
p1218
aVapartir
p1219
aVprqi
p1220
aVestranham
p1221
aVenternato
p1222
aVamade
p1223
aVmangara
p1224
aVmanha
p1225
aVbetinho
p1226
aVmort
p1227
aVtomo
p1228
aVesse
p1229
aVbetinha
p1230
aVestar
p1231
aVtitos
p1232
aVtome
p1233
aVjeito
p1234
aVaerodromo
p1235
aVpeq
p1236
aVbumark
p1237
aVsara
p1238
aVcazari
p1239
aVesses
p1240
aVtobiasse
p1241
aVzeremane
p1242
aVchamo
p1243
aVparasitas
p1244
aVdique
p1245
aVabracar
p1246
aVgomes
p1247
aVsexuas
p1248
aVmucodza
p1249
aVchegar
p1250
aVvingador
p1251
aVvachamuteco
p1252
aVgorongosa
p1253
aVfilhos
p1254
aVabel
p1255
aVenxada
p1256
aVluno
p1257
aVmahala
p1258
aVtermine
p1259
aVresiste
p1260
aVmondlane
p1261
aVseifar
p1262
aVvai
p1263
aVprepare
p1264
aVhouver
p1265
aVbangorangoma
p1266
aVcasado
p1267
aVsoflimento
p1268
aVafazer
p1269
aVajuda
p1270
aVprocurams
p1271
aVjoaquim
p1272
aVinexperavel
p1273
aVgrave
p1274
aVprogrm
p1275
aVvira
p1276
aVunidad
p1277
aVpodes
p1278
aVpoder
p1279
aVtorna_ra
p1280
aVmbanze
p1281
aVtenqui
p1282
aVleseou
p1283
aVdados
p1284
aVsid
p1285
aVgeral
p1286
aVultrapassar
p1287
aVsacrificio
p1288
aVesposa
p1289
aVfora
p1290
aVconcruiri
p1291
aVconclua
p1292
aVpastor
p1293
aVraceio
p1294
aVpecebe
p1295
aVgora
p1296
aVclemente
p1297
aVflente
p1298
aVseria
p1299
aVfamilia
p1300
aVespeciais
p1301
aVrapidameite
p1302
aVdomingo
p1303
aVgoverno
p1304
aVidde
p1305
aVputo
p1306
aVura
p1307
aVviva
p1308
aVpuqui
p1309
aVpque
p1310
aVvive
p1311
aVfalem
p1312
aVtemq
p1313
aVcomandos
p1314
aVcontiando
p1315
aVconcluiu
p1316
aVcio
p1317
aVtoda
p1318
aVpeso
p1319
aVdinheiro
p1320
aVminha
p1321
aVporke
p1322
aVmiguel
p1323
aVagora
p1324
aVescrita
p1325
aVmanuel
p1326
aVcontacte
p1327
aVleiseio
p1328
aVseja
p1329
aVseio
p1330
aVexpande
p1331
aVmtd
p1332
aVadorar
p1333
aVprblema
p1334
aVseguro
p1335
aVconcordo
p1336
aVrogerio
p1337
aVlusaca
p1338
aVapesar
p1339
aVfeliz
p1340
aVfelix
p1341
aVmundo
p1342
aV823892734
p1343
aVeduarde
p1344
aVaga
p1345
aVatanasio
p1346
aVcura
p1347
aVhauna
p1348
aVxadreqe
p1349
aVrapido
p1350
aVchiringa
p1351
aVfuro
p1352
aVtnha
p1353
aVbencoa
p1354
aVtarde
p1355
aVcoisa
p1356
aVnova
p1357
aVtita
p1358
aVlia
p1359
aVsociais
p1360
aVcadeia
p1361
aVtara
p1362
aVjudas
p1363
aVvisto
p1364
aVnao
p1365
aVabstinencia
p1366
aVmbue
p1367
aVapzar
p1368
aVnas
p1369
aVamalaria
p1370
aVxtao
p1371
aVfutur
p1372
aVnau
p1373
aVcontinuando
p1374
aVcabido
p1375
aVnhambondo
p1376
aVcasos
p1377
aVabensoada
p1378
aVenflenta
p1379
aVcasando
p1380
aVfrancisco
p1381
aS'swaraj'
p1382
aVtendo
p1383
aVintegralment
p1384
aVdireitos
p1385
aVcombater
p1386
aVsecundaria
p1387
aVcanda
p1388
aVoptar
p1389
aVtrecelina
p1390
aVfuncionario
p1391
aVrei
p1392
aVxavier
p1393
aVsacrif
p1394
aVmouzinho
p1395
aVmosquito
p1396
aVseis
p1397
aVproblema
p1398
aVmarcelina
p1399
aVaginada
p1400
aVchintuga
p1401
aVwaeze
p1402
aVmente
p1403
aVresseio
p1404
aVnatalia
p1405
aVdve
p1406
aVsempre
p1407
aVabensoe
p1408
aVamenina
p1409
aVpoucos
p1410
aVdoenca
p1411
aVxperanca
p1412
aVdpois
p1413
aVprossimo
p1414
aVdos
p1415
aVsumaera
p1416
aVsustentar
p1417
aVmaralia
p1418
aVcamilo
p1419
aVpidamente
p1420
atp1421
Rp1422
sVDholuo
p1423
g2
((lp1424
Vnyaluo
p1425
aVkawuok
p1426
aVnyale
p1427
aVkoti
p1428
aVwabudhgo
p1429
aVfour
p1430
aVoraro
p1431
aVtiba
p1432
aVnegi
p1433
aVfredric
p1434
aVnego
p1435
aVhata
p1436
aVnega
p1437
aVfiya
p1438
aVnege
p1439
aVliech
p1440
aVokulu
p1441
aVsogo
p1442
aVodhiambokoyo
p1443
aVnyanam
p1444
aVunder
p1445
aVkalausi
p1446
aVafarmer
p1447
aVodhis
p1448
aVkakaan
p1449
aVaneno
p1450
aVgounzaga
p1451
aVwilfred
p1452
aVdorina
p1453
aVjacom
p1454
aVjacob
p1455
aVjolwanda
p1456
aVokoyo
p1457
aVschool
p1458
aVokach
p1459
aVangazi
p1460
aVpuonj
p1461
aVokutah
p1462
aVsolution
p1463
aVkowna
p1464
aVatoby
p1465
aVobaya
p1466
aVvuvuzuela
p1467
aVomino
p1468
aVfuane
p1469
aVwalogo
p1470
aVndori
p1471
aVthdum
p1472
aVthiedhe
p1473
aVchew
p1474
aVmli
p1475
aVhore
p1476
aVjasoda
p1477
aVtoruakna
p1478
aVnait
p1479
aVmokwe
p1480
aVkohala
p1481
aVjomadongo
p1482
aVsecond
p1483
aVoyombo
p1484
aVafuayo
p1485
aVpande
p1486
aVenock
p1487
aVobiro
p1488
aVtipo
p1489
aVobaka
p1490
aVasetho
p1491
aVchildren
p1492
aVjawelding
p1493
aVmogo
p1494
aVnew
p1495
aVmbori
p1496
aVkwamundhi
p1497
aVever
p1498
aVomedore
p1499
aVkuayo
p1500
aVmed
p1501
aVatomy
p1502
aVongi
p1503
aVuyoma
p1504
aVeunice
p1505
aVaiga
p1506
aVonga
p1507
aVstudio
p1508
aVdoro
p1509
aVgonja
p1510
aVojwa
p1511
aVomak
p1512
aVkida
p1513
aVako
p1514
aVinyalo
p1515
aVtwakmikelono
p1516
aVkwergie
p1517
aVjoshua
p1518
aVdalawa
p1519
aVkoja
p1520
aVbenter
p1521
aVmeshack
p1522
aVnakuru
p1523
aVjasaye
p1524
aVreagan
p1525
aVschooling
p1526
aVcounty
p1527
aVwhy
p1528
aVodero
p1529
aVpreasurer
p1530
aVokwalo
p1531
aVelmard
p1532
aVsarah
p1533
aVplot
p1534
aVdna
p1535
aVhephy
p1536
aVjodongo
p1537
aVmaen
p1538
aVtela
p1539
aVratta
p1540
aVmusic
p1541
aVpassport
p1542
aVadang
p1543
aVkabonyo
p1544
aVora
p1545
aVjoshwa
p1546
aVapar
p1547
aVbejemin
p1548
aVbrings
p1549
aVmusa
p1550
aVkamalisa
p1551
aVawiti
p1552
aVgijo
p1553
aValiwa
p1554
aVkamadara
p1555
aVnyara
p1556
aVward
p1557
aVadwaro
p1558
aVkipsamwe
p1559
aVjakoyugi
p1560
aVnyawawano
p1561
aVroom
p1562
aVakala
p1563
aVkodi
p1564
aVawinjgi
p1565
aVwork
p1566
aVkoda
p1567
aVondith
p1568
aVonditi
p1569
aVhenry
p1570
aVowuogi
p1571
aVero
p1572
aVerk
p1573
aVwanka
p1574
aVwang
p1575
aVwand
p1576
aVgive
p1577
aVhousehold
p1578
aVmodng
p1579
aVosieko
p1580
aVwant
p1581
aVneema
p1582
aVwawinj
p1583
aVmachuok
p1584
aVeng
p1585
aVowilly
p1586
aVayaki
p1587
aVhow
p1588
aVyvone
p1589
aVjokoling
p1590
aVawnji
p1591
aVgate
p1592
aVmoska
p1593
aVbeach
p1594
aVlam
p1595
aVgimed
p1596
aVlwanda
p1597
aVbeauty
p1598
aVafter
p1599
aVsedy
p1600
aVfestus
p1601
aVminken
p1602
aVseda
p1603
aVsalina
p1604
aVdongi
p1605
aVlaw
p1606
aVarch
p1607
aVjaley
p1608
aVoyuera
p1609
aVnyakungru
p1610
aVpadri
p1611
aVodila
p1612
aVlaventa
p1613
aVnyangero
p1614
aVkakola
p1615
aVhores
p1616
aVenter
p1617
aVnyangere
p1618
aVwecheni
p1619
aVgidi
p1620
aVjack
p1621
aVjachien
p1622
aVsalon
p1623
aVnaman
p1624
aVkotieno
p1625
aVmaber
p1626
aVkailabwanda
p1627
aVruakna
p1628
aVhelena
p1629
aVmadiany
p1630
aVwuo
p1631
aVnyironge
p1632
aVasaly
p1633
aVobambo
p1634
aValoice
p1635
aVpius
p1636
aVbetter
p1637
aVasali
p1638
aVmatured
p1639
aVsonye
p1640
aVorua
p1641
aVoburu
p1642
aVlitein
p1643
aVthen
p1644
aVthem
p1645
aVdem
p1646
aVprevented
p1647
aVjarata
p1648
aVsadok
p1649
aVbang
p1650
aVshameful
p1651
aVthey
p1652
aVokonamba
p1653
aVsaulo
p1654
aVtreezer
p1655
aVnduru
p1656
aValex
p1657
aVankode
p1658
aVlucy
p1659
aVmahero
p1660
aVolidho
p1661
aVolima
p1662
aVdiana
p1663
aVsasta
p1664
aVallan
p1665
aVgroup
p1666
aVjokan
p1667
aVosio
p1668
aVmilao
p1669
aVdawa
p1670
aVkowe
p1671
aVstealing
p1672
aVaredo
p1673
aVaids
p1674
aV3years
p1675
aVborne
p1676
aVkuwe
p1677
aVgoi
p1678
aVgod
p1679
aVapudo
p1680
aVombi
p1681
aVsms
p1682
aVolueny
p1683
aVjanyahera
p1684
aVkasila
p1685
aVmayauru
p1686
aVgot
p1687
aVobera
p1688
aVkamigoyono
p1689
aVjudith
p1690
aVgor
p1691
aVoyaer
p1692
aVluanda
p1693
aVluande
p1694
aVjirani
p1695
aVchalsea
p1696
aVsana
p1697
aVtangnedendi
p1698
aVngimau
p1699
aVtobende
p1700
aVakoth
p1701
aVoyungu
p1702
aVata
p1703
aVato
p1704
aVango
p1705
aVlwero
p1706
aVasugo
p1707
aVhasane
p1708
aVisn
p1709
aVsoda
p1710
aVdamaris
p1711
aVngama
p1712
aVheavy2
p1713
aVaduma
p1714
aVrusinga
p1715
aVcharacters
p1716
aVolago
p1717
aVwabedo
p1718
aVgiko
p1719
aVkoduogo
p1720
aVdadangu
p1721
aVnyaur
p1722
aVdogo
p1723
aVwishers
p1724
aVtheir
p1725
aVnomia
p1726
aVochilo
p1727
aVgirls
p1728
aVtok
p1729
aVtoo
p1730
aVtom
p1731
aVjohn
p1732
aVquinta
p1733
aVamallo
p1734
aVgodwince
p1735
aVitare
p1736
aVochara
p1737
aVkimirwa
p1738
aVzephenia
p1739
aVmerimela
p1740
aVhelen
p1741
aVdadi
p1742
aVziro
p1743
aVmercy
p1744
aVologo
p1745
aVoyuma
p1746
aVayueyo
p1747
aVopiso
p1748
aVmoloyo
p1749
aValila
p1750
aVkomak
p1751
aVkolum
p1752
aVoyuga
p1753
aVsabato
p1754
aVjamandas
p1755
aVmelvine
p1756
aVoyugi
p1757
aViwinjo
p1758
aVjongi
p1759
aVotemag
p1760
aVochieng
p1761
aVrae
p1762
aVmina
p1763
aVnyakuar
p1764
aVbejamin
p1765
aVcaleb
p1766
aVchako
p1767
aVobora
p1768
aVoketne
p1769
aVras
p1770
aVcodinata
p1771
aVseen
p1772
aVadhi
p1773
aVseek
p1774
aVdivaz
p1775
aVdutote
p1776
aVmigawo
p1777
aVdivas
p1778
aVohand
p1779
aVonyoni
p1780
aVndeda
p1781
aVobonyo
p1782
aVmwalimu
p1783
aVoyugis
p1784
aV0yugi
p1785
aVmathews
p1786
aVmother
p1787
aVmijwek
p1788
aVayieko
p1789
aVwinam
p1790
aVgibaro
p1791
aVopted
p1792
aVdok
p1793
aVdon
p1794
aVflow
p1795
aVruwoth
p1796
aVabonyo
p1797
aVochunowa
p1798
aVnyadhine
p1799
aVogara
p1800
aVseka
p1801
aVmakata
p1802
aVakeyo
p1803
aVgouta
p1804
aVbomb
p1805
aVsaga
p1806
aVlizz
p1807
aVlizy
p1808
aVteresa
p1809
aVariyo
p1810
aVisaya
p1811
aVradio
p1812
aVnang
p1813
aVodoyokankiwa
p1814
aVlensa
p1815
aVukuweka
p1816
aVchalirs
p1817
aValima
p1818
aVwadeya
p1819
aVnyagoko
p1820
aVnitulize
p1821
aVmbele
p1822
aVgideon
p1823
aVocs
p1824
aVobhiambo
p1825
aVmonica
p1826
aVandila
p1827
aVkaka
p1828
aVvannie
p1829
aValili
p1830
aVtrazy
p1831
aVmarombeyi
p1832
aVgogi
p1833
aValily
p1834
aVkue
p1835
aVobed
p1836
aVyamogi
p1837
aVkalemo
p1838
aVbar
p1839
aVbas
p1840
aVjakobo
p1841
aVmigare
p1842
aVner
p1843
aVhello
p1844
aVbay
p1845
aVlolwe
p1846
aVbag
p1847
aVbam
p1848
aVnyalego
p1849
aVokawo
p1850
aVongo
p1851
aVjob
p1852
aVnyakesh
p1853
aVosiepa
p1854
aVosito
p1855
aVwakaw
p1856
aVosiepe
p1857
aVamanyo
p1858
aVrobby
p1859
aVkinyonga
p1860
aVbatoto
p1861
aVjakadete
p1862
aVchiemo
p1863
aVbest
p1864
aVmangoes
p1865
aVjakarota
p1866
aVobara
p1867
aVnerea
p1868
aVnyakogiri
p1869
aVbaiskeli
p1870
aVagos
p1871
aVgode
p1872
aVnyakenya
p1873
aVhera
p1874
aVringa
p1875
aVchode
p1876
aVonge
p1877
aVterms
p1878
aVkaachiel
p1879
aVflexis
p1880
aVnewa
p1881
aVomo
p1882
aVokongo
p1883
aVswalimingi
p1884
aVoracho
p1885
aVnamba
p1886
aVgiketo
p1887
aVaccident
p1888
aVipande
p1889
aVwachno
p1890
aVambuki
p1891
aVtingo
p1892
aVcarwash
p1893
aVuni
p1894
aVuhero
p1895
aVkwa
p1896
aVkwe
p1897
aVmodhiera
p1898
aVjonyagowa
p1899
aVniya
p1900
aVosiko
p1901
aVtony
p1902
aVnyasaye
p1903
aVtiang
p1904
aVjaringa
p1905
aVjamadoido
p1906
aVyieke
p1907
aVothuno
p1908
aVolum
p1909
aVarombo
p1910
aVfrm
p1911
aVting
p1912
aVeduawin
p1913
aVruako
p1914
aVdetrimental
p1915
aVtina
p1916
aVkajulu
p1917
aVmakende
p1918
aVjaadha
p1919
aVenocka
p1920
aVlife
p1921
aVnayo
p1922
aVawange
p1923
aVselin
p1924
aVokende
p1925
aVpheobe
p1926
aVatieno
p1927
aVdave
p1928
aVkudos
p1929
aVchild
p1930
aVndhekz
p1931
aVcambi
p1932
aVdoto
p1933
aVonyi
p1934
aVdavi
p1935
aVtirus
p1936
aVatiang
p1937
aVeast
p1938
aVabuto
p1939
aVcastro
p1940
aVnear
p1941
aVjaod
p1942
aVmedore
p1943
aVnerwa
p1944
aVkodu
p1945
aVkwaru
p1946
aVuganda
p1947
aVjese
p1948
aVequator
p1949
aVcony
p1950
aVwayuego
p1951
aVnineve
p1952
aVcant
p1953
aVnyakinda
p1954
aVjared
p1955
aVjok
p1956
aVconi
p1957
aVwuodjiariyo
p1958
aVmachalo
p1959
aVodongo
p1960
aVgrown
p1961
aVdhi
p1962
aVpliz
p1963
aVniko
p1964
aVmaka
p1965
aVnikech
p1966
aVkaburu
p1967
aVolasi
p1968
aVocampo
p1969
aVonyoo
p1970
aVvegetable
p1971
aVmiya
p1972
aVnyogwanga
p1973
aVjakusa
p1974
aVahenda
p1975
aVayoo
p1976
aVlorhen
p1977
aVobaga
p1978
aVkit
p1979
aVkik
p1980
aVmoko
p1981
aVkin
p1982
aVosawa
p1983
aVsupper
p1984
aVbomet
p1985
aVtyson
p1986
aVtung
p1987
aVgotkoduogo
p1988
aVlucas
p1989
aVkomaki
p1990
aVpenina
p1991
aVdada
p1992
aVgame
p1993
aVtho
p1994
aVdady
p1995
aVitiyo
p1996
aVthi
p1997
aVepi
p1998
aVsirkal
p1999
aVromo
p2000
aVthe
p2001
aVrespar
p2002
aVodinpo
p2003
aVthumbe
p2004
aVowili
p2005
aVafama
p2006
aVakwayi
p2007
aVyes
p2008
aVakwayo
p2009
aVotudore
p2010
aVfamily
p2011
aVshoun
p2012
aVkelo
p2013
aVnguono
p2014
aVele
p2015
aVruak
p2016
aVmagijokinda
p2017
aVhas
p2018
aVmapile
p2019
aVjaseme
p2020
aVwuoyo
p2021
aVrnl
p2022
aVvin
p2023
aV233570
p2024
aVdonat
p2025
aVwayueyo
p2026
aVbando
p2027
aVkoblo
p2028
aVonyal
p2029
aVkamariga
p2030
aVaram
p2031
aVbro
p2032
aVkazi
p2033
aVtugogo
p2034
aValice
p2035
aVkristo
p2036
aVnight
p2037
aVamos
p2038
aVamor
p2039
aVoberana
p2040
aVeema
p2041
aVjiks
p2042
aVabiero
p2043
aVright
p2044
aVpeople
p2045
aVjachiga
p2046
aVchuodho
p2047
aVborn
p2048
aVdonald
p2049
aVgwono
p2050
aVmowero
p2051
aVasipo
p2052
aVkoro
p2053
aVwariure
p2054
aVich
p2055
aVfor
p2056
aVabedo
p2057
aVedendi
p2058
aVfidel
p2059
aVoyudre
p2060
aVkamgere
p2061
aVnyamarwaka
p2062
aVmasani
p2063
aVkiliment
p2064
aVaduaro
p2065
aVorwa
p2066
aVokado
p2067
aVndiela
p2068
aVambira
p2069
aVamimo
p2070
aVsifa
p2071
aVplz
p2072
aVnafuttali
p2073
aVpeep
p2074
aVpli
p2075
aVgeff
p2076
aVmalaki
p2077
aVeat
p2078
aVchoke
p2079
aVkatiba
p2080
aVdedicate
p2081
aVabito
p2082
aVhorizon
p2083
aVoromo
p2084
aVoketch
p2085
aVadek
p2086
aVotwekgo
p2087
aVnyapacho
p2088
aVjavan
p2089
aVsom
p2090
aVolewe
p2091
aVosom
p2092
aVsuba
p2093
aVwan
p2094
aVgladis
p2095
aVsupport
p2096
aVberly
p2097
aVdewo
p2098
aVkatieno
p2099
aVjoseph
p2100
aVomogo
p2101
aVgimose
p2102
aVway
p2103
aVjakachungo
p2104
aVjane
p2105
aVgin
p2106
aVavocados
p2107
aVjana
p2108
aVgij
p2109
aVnyikwa
p2110
aVpako
p2111
aVokoth
p2112
aVform
p2113
aVmbasna
p2114
aVmakajanyuol
p2115
aVkindagitich
p2116
aVoyier
p2117
aVpiyo
p2118
aVcoblo
p2119
aVlawi
p2120
aVpesa
p2121
aVbenjami
p2122
aVnyokana
p2123
aVkadel
p2124
aVmtu
p2125
aVenthnicty
p2126
aVagwambo
p2127
aVadori
p2128
aVsupa
p2129
aVsoja
p2130
aVnyakatolo
p2131
aVkochogo
p2132
aVerustus
p2133
aVescape
p2134
aVrangwe
p2135
aVisrael
p2136
aVperes
p2137
aVparwa
p2138
aVonesmus
p2139
aVmolo
p2140
aVperez
p2141
aVnakazi
p2142
aVmrs
p2143
aVtangne
p2144
aVsamson
p2145
aVkwbwai
p2146
aVoduma
p2147
aVneyane
p2148
aVwhen
p2149
aVoyor
p2150
aVtim
p2151
aVobar
p2152
aVmbei
p2153
aVtij
p2154
aVochonjo
p2155
aVogaa
p2156
aVtochuno
p2157
aVdoyo
p2158
aVminlizy
p2159
aVorato
p2160
aVmlanda
p2161
aVinego
p2162
aVmokuongo
p2163
aVaruto
p2164
aVayoro
p2165
aVoyisa
p2166
aVholynes
p2167
aVfaster
p2168
aVleah
p2169
aVpusy
p2170
aVseuen
p2171
aVewo
p2172
aVbedo
p2173
aVmangongo
p2174
aVkonyruok
p2175
aVminwa
p2176
aVtime
p2177
aVobunga
p2178
aVpusi
p2179
aVoyoko
p2180
aVtimo
p2181
aVmikumu
p2182
aVdavas
p2183
aVgowi
p2184
aVopato
p2185
aVmily
p2186
aVleads
p2187
aVosewacho
p2188
aVmanager
p2189
aVogochna
p2190
aVatibo
p2191
aVspidi
p2192
aVmilk
p2193
aVmwanamke
p2194
aVotamre
p2195
aVoyud
p2196
aVclarification
p2197
aVtosha
p2198
aVnamann
p2199
aVfather
p2200
aVoludhe
p2201
aVgigo
p2202
aVohala
p2203
aVmakambudi
p2204
aVongiyo
p2205
aVonyallo
p2206
aVhellen
p2207
aVbrown
p2208
aVmakare
p2209
aVjera
p2210
aVbret
p2211
aVabenjo
p2212
aVokwach
p2213
aVechokruok
p2214
aVogol
p2215
aVobondo
p2216
aVnikitetemesga
p2217
aVjastine
p2218
aVdid
p2219
aVenok
p2220
aVwilkister
p2221
aVchabera
p2222
aVinyal
p2223
aVakenya
p2224
aVyala
p2225
aVdiz
p2226
aVteam
p2227
aVjowadwa
p2228
aVkisumu
p2229
aVupper
p2230
aVakinyi
p2231
aVkephas
p2232
aVduogo
p2233
aVmakagwa
p2234
aVkidiga
p2235
aVkisumo
p2236
aVanbende
p2237
aVnyaguda
p2238
aVmalit
p2239
aVconstitution
p2240
aVeliza
p2241
aVonyisi
p2242
aVmrkt
p2243
aVwagotich
p2244
aVonyalo
p2245
aVdinde
p2246
aVchunye
p2247
aVouma
p2248
aVmapiyo
p2249
aVtusker
p2250
aVedala
p2251
aVkama
p2252
aVamala
p2253
aVmabinju
p2254
aVchunygi
p2255
aVdwaro
p2256
aVamalo
p2257
aVsaitoti
p2258
aVdenda
p2259
aVodagi
p2260
aVdendi
p2261
aVboy
p2262
aVbange
p2263
aVnyako
p2264
aVagulu
p2265
aVhesbon
p2266
aVkindagititich
p2267
aVnyaka
p2268
aVeka
p2269
aVsunga
p2270
aVbondoo
p2271
aVexams
p2272
aV438
p2273
aVmargot
p2274
aVdoris
p2275
aVagulo
p2276
aVobugi
p2277
aVewaiting
p2278
aVramba
p2279
aVthrees
p2280
aVachuanyora
p2281
aV1st
p2282
aVmarket
p2283
aVkagin
p2284
aVdudi
p2285
aVngt
p2286
aVnyakoko
p2287
aVpere
p2288
aVkamnara
p2289
aVsoko
p2290
aVlive
p2291
aVngode
p2292
aVskul
p2293
aVwolta
p2294
aVgotea
p2295
aVclub
p2296
aVgwassi
p2297
aVoruba
p2298
aVdismas
p2299
aVooko
p2300
aVokonego
p2301
aVoduaro
p2302
aVndiege
p2303
aVjaranga
p2304
aVjorim
p2305
aVoor
p2306
aVjotend
p2307
aVjotene
p2308
aVsylvia
p2309
aVnyandori
p2310
aVemmauel
p2311
aVongoche
p2312
aVnyis
p2313
aVcap
p2314
aVajowi
p2315
aVgeyo
p2316
aVjudy
p2317
aVoriti
p2318
aVcan
p2319
aVflo
p2320
aVmakini
p2321
aVgrowing
p2322
aVajigo
p2323
aVjondik
p2324
aVugenya
p2325
aVngat
p2326
aVasiko
p2327
aVagent
p2328
aVoyengwe
p2329
aVpurity
p2330
aVnyaliech
p2331
aVdennis
p2332
aVngai
p2333
aVbegi
p2334
aVkanene
p2335
aVmike
p2336
aVpiny
p2337
aVmzike
p2338
aVnyo
p2339
aVsilas
p2340
aVprezida
p2341
aVnya
p2342
aVeconomy
p2343
aVochamo
p2344
aVlido
p2345
aVmar
p2346
aVokeyo
p2347
aVochami
p2348
aVmay
p2349
aVkambare
p2350
aVjaohangla
p2351
aVanyiewone
p2352
aVmac
p2353
aVmae
p2354
aVguyz
p2355
aVmag
p2356
aVsuch
p2357
aVmak
p2358
aVmam
p2359
aVamunga
p2360
aVman
p2361
aVmauyoma
p2362
aVwasemolo
p2363
aVoriedo
p2364
aVogwajo
p2365
aVvoice
p2366
aVnyakabonyo
p2367
aVkura
p2368
aVmaxwel
p2369
aVmango
p2370
aVoonje
p2371
aVafrican
p2372
aVhassan
p2373
aVnyanaya
p2374
aVores
p2375
aVugnj
p2376
aVjosphin
p2377
aVmagot
p2378
aVwadua
p2379
aVfwanae
p2380
aVojuang
p2381
aVcoly
p2382
aVngikni
p2383
aVakonogi
p2384
aVjocy
p2385
aVpokotugo
p2386
aVyears
p2387
aVkanyo
p2388
aVamosi
p2389
aVstill
p2390
aVbenjamin
p2391
aVamoso
p2392
aVjapicha
p2393
aVjoyce
p2394
aVachieng
p2395
aVthank
p2396
aVkamillambo
p2397
aVauma
p2398
aVenni
p2399
aVsomna
p2400
aVmosiko
p2401
aVotegno
p2402
aVgem
p2403
aVfarmer
p2404
aVokela
p2405
aVjasino
p2406
aValokoyamo
p2407
aVlunch
p2408
aVdrilling
p2409
aVapeji
p2410
aVhalf
p2411
aVnot
p2412
aVnow
p2413
aVhall
p2414
aVterm
p2415
aVchuade
p2416
aVservant
p2417
aVjames
p2418
aVyuoth
p2419
aVkenyata
p2420
aVjomo
p2421
aVjatogo
p2422
aVjoma
p2423
aVmbuya
p2424
aVagin
p2425
aVkani
p2426
aVirine
p2427
aVmambo
p2428
aVukimwi
p2429
aVowuor
p2430
aVowuon
p2431
aVjowinjo
p2432
aVwachiew
p2433
aVapida
p2434
aVjatij
p2435
aVfredrick
p2436
aVowino
p2437
aVgavana
p2438
aVelizabeth
p2439
aVnyalo
p2440
aVjayadh
p2441
aVkenn
p2442
aVopener
p2443
aVpamela
p2444
aVwinjo
p2445
aVogambi
p2446
aVamigoh
p2447
aVakuru
p2448
aVjolendo
p2449
aVoro
p2450
aVbarak
p2451
aVatice
p2452
aVestations
p2453
aVmimi
p2454
aVberil
p2455
aV0mbija
p2456
aValphas
p2457
aVolandore
p2458
aVkaranja
p2459
aVmogenowa
p2460
aVmotion
p2461
aVthing
p2462
aVgordon
p2463
aVyesu
p2464
aVstar
p2465
aVfirst
p2466
aVwiki
p2467
aVnyakuwar
p2468
aVzam
p2469
aVjalango
p2470
aVbed
p2471
aVong
p2472
aVone
p2473
aVrevaet
p2474
aVpoline
p2475
aVlong
p2476
aVmbeyi
p2477
aVgeorge
p2478
aVcassava
p2479
aVyie
p2480
aVcity
p2481
aVosogo
p2482
aVjusfin
p2483
aVjeliz
p2484
aVbiti
p2485
aVagangu
p2486
aVekwanda
p2487
aVwawaria
p2488
aVodindo
p2489
aVyik
p2490
aVroseline
p2491
aVbenard
p2492
aVyamo
p2493
aVmasala
p2494
aVagango
p2495
aVojoru
p2496
aVbobi
p2497
aVthat
p2498
aVdemocraticly
p2499
aVobingo
p2500
aVongao
p2501
aVosetimo
p2502
aVthan
p2503
aVinjinia
p2504
aVldda
p2505
aValemne
p2506
aVogundo
p2507
aVkarata
p2508
aVwere
p2509
aVkagintie
p2510
aVmalami
p2511
aVwero
p2512
aVand
p2513
aVane
p2514
aVang
p2515
aVsan
p2516
aVsam
p2517
aVsaa
p2518
aVmatek
p2519
aVpri
p2520
aVsae
p2521
aVvoices
p2522
aVlicy
p2523
aVloko
p2524
aVmidhiero
p2525
aVkevin
p2526
aVburnin
p2527
aVjakochia
p2528
aVjabondo
p2529
aVaside
p2530
aVogoch
p2531
aVnungo
p2532
aVpaulin
p2533
aVodanga
p2534
aVtake
p2535
aVperformance
p2536
aVurge
p2537
aVsure
p2538
aVopposite
p2539
aVpastor
p2540
aVajaiga
p2541
aVasembo
p2542
aVjenipher
p2543
aVchieng
p2544
aVjwalago
p2545
aVsali
p2546
aVdorice
p2547
aVonego
p2548
aVespecially
p2549
aVnkuma
p2550
aVrispa
p2551
aVoguda
p2552
aVconstable
p2553
aVmagambo
p2554
aVsaly
p2555
aVrarieda
p2556
aVlawy
p2557
aVobedi
p2558
aVprofessional
p2559
aVnyairo
p2560
aVgimamana
p2561
aVobedo
p2562
aVshop
p2563
aVmeshak
p2564
aVtololwe
p2565
aVkende
p2566
aVshow
p2567
aVusibadilishe
p2568
aVkendo
p2569
aV0737146952
p2570
aVmakasembo
p2571
aVaseyuoro
p2572
aVobote
p2573
aVtiyo
p2574
aVgangre
p2575
aVmikai
p2576
aVdick
p2577
aVfeni
p2578
aVkesi
p2579
aVotis
p2580
aVonly
p2581
aVgoing
p2582
aVsakwa
p2583
aVodwoko
p2584
aVcaroline
p2585
aVmamna
p2586
aVoyie
p2587
aVger
p2588
aVjosinta
p2589
aVkitale
p2590
aVsamuel
p2591
aVokelo
p2592
aVmondo
p2593
aVachieyo
p2594
aVgen
p2595
aVmondi
p2596
aVsecondary
p2597
aVkanisana
p2598
aVkefa
p2599
aVmowergi
p2600
aVgirl
p2601
aVotengo
p2602
aVlum
p2603
aVwuoi
p2604
aVotiende
p2605
aVnyabudho
p2606
aVoyomo
p2607
aVwuon
p2608
aVcithia
p2609
aVtijega
p2610
aVwuod
p2611
aVwaringa
p2612
aVwanyika
p2613
aViusogi
p2614
aVmosoriot
p2615
aVbrenda
p2616
aVerica
p2617
aVlincon
p2618
aVjaraha
p2619
aVruadhmogo
p2620
aVawuor
p2621
aVarita
p2622
aVawuok
p2623
aVestar
p2624
aVwaya
p2625
aVjasindo
p2626
aVachar
p2627
aVowil
p2628
aVvelma
p2629
aVjaote
p2630
aVmathoth
p2631
aVminlolwe
p2632
aVelijah
p2633
aVjoba
p2634
aVtuo
p2635
aVslivia
p2636
aVamori
p2637
aVcome
p2638
aV6yrs
p2639
aVmany
p2640
aVaccording
p2641
aVmoreso
p2642
aVjeremia
p2643
aVmana
p2644
aVigoyo
p2645
aVblasto
p2646
aVagesh
p2647
aVcelebral
p2648
aVmang
p2649
aVabimbo
p2650
aVjakodada
p2651
aVamosojokanyangokot
p2652
aVmano
p2653
aVlumumba
p2654
aVkey
p2655
aVkadho
p2656
aVjomba
p2657
aVctzns
p2658
aVsiia
p2659
aVpuonjruok
p2660
aVanto
p2661
aVaminda
p2662
aVkonyo
p2663
aVduto
p2664
aVnyatigo
p2665
aVlamo
p2666
aVpod
p2667
aVkonya
p2668
aVmare
p2669
aVmarg
p2670
aVmara
p2671
aVamora
p2672
aVorum
p2673
aVbarry
p2674
aVturker
p2675
aVmari
p2676
aVodhiambojainungo
p2677
aVmark
p2678
aVsesa
p2679
aVmaru
p2680
aVnyagem
p2681
aVsese
p2682
aVnyagowa
p2683
aVrebman
p2684
aVcaren
p2685
aVmary
p2686
aVgombe
p2687
aVkaok
p2688
aVmaboyo
p2689
aVdhex
p2690
aVmosna
p2691
aVowunr
p2692
aVmaboya
p2693
aVandrew
p2694
aVjopuonj
p2695
aVisaac
p2696
aVmalela
p2697
aVyudna
p2698
aVaselal
p2699
aVsophy
p2700
aVjope
p2701
aVmamana
p2702
aVnyasayene
p2703
aVgingo
p2704
aVojosho
p2705
aVyongoh
p2706
aVolambo
p2707
aVbeatriece
p2708
aVnyabungu
p2709
aVbevaline
p2710
aVodhikatedokamano
p2711
aVdaktari
p2712
aVmiddle
p2713
aVodiwuor
p2714
aVapako
p2715
aVobuya
p2716
aVkenya
p2717
aVpamella
p2718
aVworry
p2719
aVakwayone
p2720
aVpap
p2721
aVbags
p2722
aVsami
p2723
aVpastar
p2724
aVnyaurunda
p2725
aVtodok
p2726
aVabongo
p2727
aVarich
p2728
aVnyaurundi
p2729
aVwiya
p2730
aVanbe
p2731
aVnyabera
p2732
aVsaff
p2733
aVsamy
p2734
aVjakoyo
p2735
aVisack
p2736
aVodhimbo
p2737
aVmasawa
p2738
aVstruggling
p2739
aVorindo
p2740
aVmane
p2741
aVoimore
p2742
aVfinish
p2743
aVidong
p2744
aVdriver
p2745
aVnaphtali
p2746
aVkogola
p2747
aVmisambi
p2748
aVchemest
p2749
aVawuoro
p2750
aVkaan
p2751
aVjakakamega
p2752
aVknow
p2753
aVcolins
p2754
aVoching
p2755
aV6hrs
p2756
aVgibed
p2757
aVnjoga
p2758
aVhaina
p2759
aVorawo
p2760
aVkawan
p2761
aVpache
p2762
aVimbo
p2763
aVtoby
p2764
aVosiany
p2765
aVrest
p2766
aVngos
p2767
aVschools
p2768
aVkill
p2769
aVmoneg
p2770
aVokawkura
p2771
aVosiano
p2772
aVdeath
p2773
aVngado
p2774
aVrose
p2775
aVadhis
p2776
aVtin
p2777
aVotieko
p2778
aVkachieng
p2779
aVpile
p2780
aVrosy
p2781
aVtije
p2782
aVreal
p2783
aVdiechieng
p2784
aVnyarosiri
p2785
aVkills
p2786
aVmos
p2787
aVoffence
p2788
aVgedion
p2789
aVmou
p2790
aVearly
p2791
aVkawuono
p2792
aVcaro
p2793
aVmon
p2794
aVmbita
p2795
aVmob
p2796
aVlady
p2797
aVcbos
p2798
aVjodolo
p2799
aVpon
p2800
aVolore
p2801
aVkennedy
p2802
aVwachone
p2803
aVsinthia
p2804
aVmotegno
p2805
aVdiscarded
p2806
aVbenefit
p2807
aVogwedhi
p2808
aVduokopacho
p2809
aVreduced
p2810
aVpok
p2811
aVjoas
p2812
aVoluoch
p2813
aVkamara
p2814
aVkidhii
p2815
aVkoly
p2816
aVoloyogi
p2817
aVobongo
p2818
aVtable
p2819
aVduration
p2820
aVnyithinda
p2821
aVawinjou
p2822
aVkoli
p2823
aVnyakure
p2824
aVbenta
p2825
aVjakinyozi
p2826
aVtoti
p2827
aVtoto
p2828
aValwoch
p2829
aVbottlers
p2830
aVouta
p2831
aVtunya
p2832
aVogolo
p2833
aVmaok
p2834
aVogola
p2835
aVogole
p2836
aVmwai
p2837
aVobumba
p2838
aVkagwa
p2839
aVdispensary
p2840
aVpower
p2841
aVvivian
p2842
aVlate
p2843
aVjagem
p2844
aVketho
p2845
aVolok
p2846
aVjambaka
p2847
aVomato
p2848
aVwikimos
p2849
aVolos
p2850
aVpastors
p2851
aVraul
p2852
aVawino
p2853
aVanywola
p2854
aVfrancis
p2855
aVadongo
p2856
aVasai
p2857
aVnyithindogo
p2858
aVdhiye
p2859
aVyuora
p2860
aVwadew
p2861
aVack
p2862
aVsherly
p2863
aVmamit
p2864
aVchon
p2865
aVobeyi
p2866
aVeskul
p2867
aVrevent
p2868
aVwest
p2869
aVmixed
p2870
aVgodjope
p2871
aVtaras
p2872
aVstano
p2873
aValeme
p2874
aVonywera
p2875
aVbitty
p2876
aVhooot
p2877
aVkipandego
p2878
aVwadu
p2879
aVfwane
p2880
aVcharly
p2881
aVnikanyo
p2882
aVmoris
p2883
aVkibos
p2884
aVagody
p2885
aVkolly
p2886
aVlok
p2887
aVthere
p2888
aVnyang
p2889
aVbshp
p2890
aVkondele
p2891
aVawacho
p2892
aVbude
p2893
aVudwa
p2894
aVdayana
p2895
aVmajengo
p2896
aVbunde
p2897
aVaoko
p2898
aVaherou
p2899
aVkahike
p2900
aVmiyaa
p2901
aVongalo
p2902
aVcolince
p2903
aVatimo
p2904
aVdavy
p2905
aVjadudi
p2906
aVmidega
p2907
aVwito
p2908
aVwazz
p2909
aVongele
p2910
aVagrey
p2911
aVojuok
p2912
aVlukio
p2913
aVifear
p2914
aVsalome
p2915
aV25yrs
p2916
aVokungu
p2917
aVotumba
p2918
aVolwongne
p2919
aVotudre
p2920
aVage
p2921
aVcare
p2922
aVmunda
p2923
aVgone
p2924
aVgumbo
p2925
aVmamiyo
p2926
aVarianda
p2927
aVcbo
p2928
aVtshirt
p2929
aVmarach
p2930
aVlogo
p2931
aVnera
p2932
aVpolitics
p2933
aVsiaya
p2934
aVbishop
p2935
aVjopeng
p2936
aVyoo
p2937
aVmanotimre
p2938
aVyom
p2939
aVmanyien
p2940
aVjakakmenga
p2941
aVyogo
p2942
aVjakanyaluo
p2943
aVoyawre
p2944
aVav2
p2945
aVyou
p2946
aVowade
p2947
aVdenoh
p2948
aVcolly
p2949
aVowada
p2950
aVpoor
p2951
aVsiprose
p2952
aVabuki
p2953
aVogutu
p2954
aVtyras
p2955
aValbat
p2956
aVjatisat
p2957
aVchris
p2958
aVchwade
p2959
aVabwao
p2960
aVketnaa
p2961
aVngwono
p2962
aVbooked
p2963
aVywore
p2964
aVcheme
p2965
aVmatiyo
p2966
aVadak
p2967
aVmass
p2968
aVnelson
p2969
aVbongisa
p2970
aVoriginal
p2971
aVmasy
p2972
aVadag
p2973
aVdisp
p2974
aValo
p2975
aVall
p2976
aVsch
p2977
aVjawuo
p2978
aVinungo
p2979
aVemili
p2980
aVdotcom
p2981
aVamosogite
p2982
aVkatena
p2983
aVjopiny
p2984
aVjariyo
p2985
aVfollow
p2986
aVnanga
p2987
aVsuna
p2988
aVptr
p2989
aVemily
p2990
aVlweta
p2991
aVwikimosh
p2992
aVjauriri
p2993
aVmadodhi
p2994
aVdaniel
p2995
aVesiasa
p2996
aVelias
p2997
aVjenga
p2998
aVosiepena
p2999
aVnyachieo
p3000
aVmandela
p3001
aVototo
p3002
aVyien
p3003
aVjakabuya
p3004
aVvery
p3005
aVowiti
p3006
aVrading
p3007
aVsony
p3008
aVrwakna
p3009
aVberryl
p3010
aVsteve
p3011
aVgruba
p3012
aVochung
p3013
aVseta
p3014
aVchupa
p3015
aVlarge
p3016
aVagak
p3017
aVkondo
p3018
aVduya
p3019
aVkabudho
p3020
aVjakaleo
p3021
aVharry
p3022
aVanan
p3023
aVsano
p3024
aVkonda
p3025
aVsabun
p3026
aVsani
p3027
aVjael
p3028
aVtek
p3029
aVchemelil
p3030
aVtee
p3031
aVzero
p3032
aVngeso
p3033
aVrata
p3034
aVlavolavo
p3035
aVmabele
p3036
aVndede
p3037
aVobala
p3038
aVodego
p3039
aVchege
p3040
aVwhat
p3041
aVwaland
p3042
aVrichard
p3043
aVoiro
p3044
aVnigiwuog
p3045
aVenambana
p3046
aVchali
p3047
aVabunga
p3048
aVkitere
p3049
aVchiwo
p3050
aVjaoda
p3051
aVaila
p3052
aVjaode
p3053
aVkabondo
p3054
aVkamica
p3055
aVaruako
p3056
aVneno
p3057
aVfull
p3058
aVwacho
p3059
aVmalaria
p3060
aVnyangen
p3061
aVnene
p3062
aVnyathiwa
p3063
aVjonam
p3064
aVloose
p3065
aVwellwishers
p3066
aVndiga
p3067
aVmboya
p3068
aVjato
p3069
aV1amasiro
p3070
aVhawimaber
p3071
aVeschool
p3072
aVopaso
p3073
aVfred
p3074
aVtagabi
p3075
aVolasy
p3076
aVlomg
p3077
aVaganyo
p3078
aVndogo
p3079
aVjatanga
p3080
aVabala
p3081
aVnarrow
p3082
aVnguonomar
p3083
aVkadogo
p3084
aVougo
p3085
aVkacha
p3086
aVmilenye
p3087
aVafrica
p3088
aVvio
p3089
aVdanga
p3090
aVsimba
p3091
aVmicheol
p3092
aVmosmaga
p3093
aVmangeny
p3094
aVsilva
p3095
aVeye
p3096
aVpamipami
p3097
aVtwo
p3098
aVeyo
p3099
aVkatito
p3100
aVmuhanda
p3101
aVrafy
p3102
aVmoro
p3103
aVkinga
p3104
aVmora
p3105
aVodogi
p3106
aVogonda
p3107
aVmore
p3108
aVadera
p3109
aVogeta
p3110
aVaize
p3111
aVbrighto
p3112
aVogwanjo
p3113
aVkawino
p3114
aVhurry
p3115
aVwadhi
p3116
aVfredy
p3117
aVchurch
p3118
aVtuak
p3119
aVnono
p3120
aVkuongi
p3121
aVndiii
p3122
aVokaka
p3123
aVdev
p3124
aVmalo
p3125
aVsinyolo
p3126
aVdel
p3127
aVnind
p3128
aVatari
p3129
aVkadawa
p3130
aVnason
p3131
aVamolo
p3132
aVkech
p3133
aVoswe
p3134
aVann
p3135
aVjiowuog
p3136
aVakech
p3137
aVemilly
p3138
aVmzee
p3139
aVoywer
p3140
aVnyabondo
p3141
aVanswer
p3142
aVatang
p3143
aVano
p3144
aVjaduka
p3145
aVarambe
p3146
aVmaratipo
p3147
aVagogo
p3148
aVlavo
p3149
aVplant
p3150
aVigni
p3151
aVlina
p3152
aVwinie
p3153
aVsabina
p3154
aVokaw
p3155
aVbenyamin
p3156
aVmatugorome
p3157
aVombedo
p3158
aVopong
p3159
aVokal
p3160
aVokao
p3161
aVyudotuo
p3162
aVlimpopo
p3163
aVokwarona
p3164
aVnyalwak
p3165
aVjadwuongna
p3166
aVsusan
p3167
aVjaugenya
p3168
aVgrandy
p3169
aVregister
p3170
aVbugs
p3171
aVtomaoes
p3172
aVmigwena
p3173
aVrutek
p3174
aVabich
p3175
aVsama
p3176
aVhelp
p3177
aVav1an
p3178
aVthrough
p3179
aVotiya
p3180
aVmartich
p3181
aVnyakeyo
p3182
aVisaiah
p3183
aVasedonjo
p3184
aVnyarkajulu
p3185
aVawouro
p3186
aVarwako
p3187
aVjokinda
p3188
aVombwede
p3189
aVresort
p3190
aVgitiyo
p3191
aVomwadho
p3192
aVfwanane
p3193
aVpenj
p3194
aVkapiyo
p3195
aVodip
p3196
aVgood
p3197
aVdibas
p3198
aVmaler
p3199
aVuono
p3200
aVmatibe
p3201
aVolivia
p3202
aVokonye
p3203
aVcompound
p3204
aVokimi
p3205
aVorodi
p3206
aVrombo
p3207
aVosiepna
p3208
aV20nambana
p3209
aVkanyingoro
p3210
aVjakimda
p3211
aVranen
p3212
aVachiel
p3213
aVodinga
p3214
aVdik
p3215
aVbless
p3216
aVeva
p3217
aVsoyo
p3218
aVheavy
p3219
aVosako
p3220
aVmagi
p3221
aVhouse
p3222
aVhard
p3223
aVokuma
p3224
aVokdwar
p3225
aVbende
p3226
aVbabawa
p3227
aVblues
p3228
aVhatari
p3229
aVleave
p3230
aVevy
p3231
aVrobert
p3232
aValphonce
p3233
aVasayi
p3234
aVmisiara
p3235
aVhealth
p3236
aVokawinjo
p3237
aVrabango
p3238
aVoccurs
p3239
aVjaplastic
p3240
aVcorporal
p3241
aVnyaranga
p3242
aVvioj
p3243
aVlawrence
p3244
aVjusukuma
p3245
aVase
p3246
aVkachiel
p3247
aVodoyo
p3248
aVtomoloyo
p3249
aVnyaurudi
p3250
aVmogoyo
p3251
aVokinyo
p3252
aVmalari
p3253
aVoyang
p3254
aVkambudi
p3255
aVnyaseme
p3256
aVfruit
p3257
aVmadara
p3258
aVbenja
p3259
aVshikuku
p3260
aVding
p3261
aVopiyo
p3262
aVtedo
p3263
aVmise
p3264
aVnumber
p3265
aVtibole
p3266
aVelder
p3267
aVwalok
p3268
aVjogo
p3269
aVbiuti
p3270
aVjoga
p3271
aVlewni
p3272
aVmamy
p3273
aVjep
p3274
aVkajos
p3275
aVkoa
p3276
aVyongo
p3277
aVmaleria
p3278
aVjey
p3279
aVkod
p3280
aVaa5
p3281
aVaa4
p3282
aVpakna
p3283
aVaa2
p3284
aVmama
p3285
aVogeda
p3286
aVraila
p3287
aVjosega
p3288
aVselline
p3289
aVmagunga
p3290
aVbudeboon
p3291
aVaa3
p3292
aVnedendi
p3293
aVpodniepach
p3294
aVkitumbe
p3295
aVhotel
p3296
aVoyaore
p3297
aVolweny
p3298
aVminena
p3299
aVawilo
p3300
aVakaw
p3301
aVashley
p3302
aVodede
p3303
aVgrace
p3304
aVndege
p3305
aVobama
p3306
aVstd
p3307
aVguok
p3308
aVesamachon
p3309
aVkindly
p3310
aVanindo
p3311
aVochiew
p3312
aVyouth
p3313
aVonam
p3314
aVkapok
p3315
aVmarriage
p3316
aVdani
p3317
aVkarow
p3318
aVopukore
p3319
aVmongee
p3320
aVdana
p3321
aVkiny
p3322
aVchagaik
p3323
aVongong
p3324
aVwasonga
p3325
aVsikuma
p3326
aVowenindo
p3327
aVurgently
p3328
aVphilli
p3329
aVapery
p3330
aVagen
p3331
aVmusalapi
p3332
aVkaro
p3333
aVnyongo
p3334
aVatm
p3335
aVcheck
p3336
aVrukia
p3337
aVofficers
p3338
aVode
p3339
aVlit
p3340
aVefi
p3341
aVlis
p3342
aVchapchap
p3343
aVliz
p3344
aVdemna
p3345
aVkasongo
p3346
aVkaa
p3347
aVpulot
p3348
aVkae
p3349
aVamam
p3350
aVmoso
p3351
aVndhulu
p3352
aVkan
p3353
aVnyachiawo
p3354
aVkar
p3355
aVkaw
p3356
aVondoro
p3357
aVoderootumba
p3358
aVnitie
p3359
aVyawa
p3360
aVkoker
p3361
aVchwogi
p3362
aVgemkaumara
p3363
aVjadonat
p3364
aVgaby
p3365
aVnyasachi
p3366
aVkiboswa
p3367
aVancaro
p3368
aVkochunyno
p3369
aVmaketgi
p3370
aVaakala
p3371
aVnyasache
p3372
aVbeldine
p3373
aVthomas
p3374
aVwakili
p3375
aVjehova
p3376
aVgim
p3377
aVgolo
p3378
aViweye
p3379
aVochuo
p3380
aVodhi
p3381
aVtinde
p3382
aVochue
p3383
aVolang
p3384
aVmoseh
p3385
aVasoro
p3386
aVjohera
p3387
aVrawo
p3388
aVjainungo
p3389
aVuriyo
p3390
aVongoro
p3391
aVequity
p3392
aVodipo
p3393
aVmoses
p3394
aVnambanano
p3395
aVmabiro
p3396
aVnam
p3397
aVcholera
p3398
aVkibuye
p3399
aVtrees
p3400
aVomwandho
p3401
aVsila
p3402
aVbasement
p3403
aVhik
p3404
aVjagorofa
p3405
aVfama
p3406
aVomollo
p3407
aValoke
p3408
aVmrefu
p3409
aVomolla
p3410
aVnyakarabondi
p3411
aValoko
p3412
aVnijitwika
p3413
aVnyagoro
p3414
aVomolo
p3415
aVvincent
p3416
aVkokara
p3417
aVnyakongo
p3418
aVset
p3419
aVjakibugu
p3420
aVanyango
p3421
aV4lowing
p3422
aVpodotin
p3423
aVjolony
p3424
aVtiyore
p3425
aVsipi
p3426
aVyalla
p3427
aVsamatin
p3428
aVmanywanda
p3429
aVsec
p3430
aVare
p3431
aVmatin
p3432
aVbaro
p3433
aVilaro
p3434
aVawinjo
p3435
aVkwuamundhi
p3436
aVawinji
p3437
aVpisi
p3438
aVmasafa
p3439
aVdebas
p3440
aValokie
p3441
aVasally
p3442
aVafwayone
p3443
aVsababu
p3444
aVkuom
p3445
aVnyathigi
p3446
aVnosigi
p3447
aVrite
p3448
aVtransfered
p3449
aVnyiri
p3450
aVmiganda
p3451
aVcolliy
p3452
aVjagongo
p3453
aVkanyuol
p3454
aVgagra
p3455
aVericah
p3456
aVpesapesa
p3457
aVpami
p3458
aVachola
p3459
aVjasuna
p3460
aVboth
p3461
aVlast
p3462
aVadipo
p3463
aVdomnick
p3464
aVsadam
p3465
aVasedonje
p3466
aVepiny
p3467
aVopak
p3468
aVnyoracha
p3469
aVitamor
p3470
aVthoo
p3471
aVmegs
p3472
aVrisper
p3473
aValot
p3474
aVomosh
p3475
aVlasi
p3476
aVrodgers
p3477
aVogweno
p3478
aVkodele
p3479
aVkwuom
p3480
aVollo
p3481
aVjeff
p3482
aVreasons
p3483
aVjokamien
p3484
aVjang
p3485
aVrosa
p3486
aVgitimatek
p3487
aVvillage
p3488
aVoliech
p3489
aVeabila
p3490
aVakuna
p3491
aVjairo
p3492
aVroslida
p3493
aVjavo
p3494
aVunderage
p3495
aVdue
p3496
aVdamu
p3497
aVochido
p3498
aVinear
p3499
aVdut
p3500
aVwalter
p3501
aVokulo
p3502
aVbenardo
p3503
aVram
p3504
aVmajaigni
p3505
aVfire
p3506
aVmind
p3507
aVomiyo
p3508
aVmine
p3509
aVochoro
p3510
aVkapuoyo
p3511
aViddy
p3512
aVtogi
p3513
aVjakowich
p3514
aVhigni
p3515
aVogingadan
p3516
aVcllr
p3517
aVogendo
p3518
aViya
p3519
aVoluonch
p3520
aVmoluor
p3521
aViyo
p3522
aVleya
p3523
aVogenda
p3524
aVgovernor
p3525
aVchiga
p3526
aVadmire
p3527
aVjokambudi
p3528
aVabor
p3529
aVusiku
p3530
aVaidha
p3531
aVatobi
p3532
aVosal
p3533
aVvoters
p3534
aVjiariyo
p3535
aVmandor
p3536
aVrit
p3537
aVris
p3538
aVgima
p3539
aVyath
p3540
aVkwayona
p3541
aVaudo
p3542
aVagingu
p3543
aVewi
p3544
aVoywa
p3545
aVshirt
p3546
aVjaberna
p3547
aVajwala
p3548
aVjanguare
p3549
aVhomabay
p3550
aVodiero
p3551
aValuoch
p3552
aVodeka
p3553
aVsammy
p3554
aVruth
p3555
aVnaogopa
p3556
aVsham
p3557
aVingeng
p3558
aV891
p3559
aVbon
p3560
aVobia
p3561
aVokando
p3562
aVscopion
p3563
aVcleaning
p3564
aValogo
p3565
aVkabisa
p3566
aVlower
p3567
aVkambi
p3568
aVyudo
p3569
aVmourine
p3570
aVnyocha
p3571
aVopenda
p3572
aVnyocho
p3573
aVoguche
p3574
aVknd
p3575
aVmoi
p3576
aVsango
p3577
aVsakari
p3578
aVlambwe
p3579
aVjnr
p3580
aVnichezee
p3581
aVmariwa
p3582
aVmanasse
p3583
aVgiwiye
p3584
aVevarlyne
p3585
aVjokaneya
p3586
aVjoteneduto
p3587
aVgona
p3588
aVotealuoch
p3589
aVafro
p3590
aVthieth
p3591
aVdwokna
p3592
aVouko
p3593
aVmandas
p3594
aVmavo
p3595
aVmarrying
p3596
aVowawa
p3597
aVkasagam
p3598
aVkamano
p3599
aVbarack
p3600
aVtaban
p3601
aVomenda
p3602
aVparents
p3603
aVkanitie
p3604
aVnyathikich
p3605
aVodeyo
p3606
aVmburu
p3607
aVjagangre
p3608
aVodhiadhia
p3609
aVmbura
p3610
aVodich
p3611
aVkageno
p3612
aVmarcy
p3613
aVjanyuol
p3614
aVsemo
p3615
aVbabela
p3616
aVmakokina
p3617
aVngato
p3618
aVseme
p3619
aVvipe
p3620
aVekara
p3621
aVochakogo
p3622
aVmirefu
p3623
aVarthur
p3624
aVivan
p3625
aVnairobi
p3626
aVondege
p3627
aVmose
p3628
aVkosemaki
p3629
aVoteen
p3630
aVmawere
p3631
aVmakabongo
p3632
aVmageta
p3633
aVsomb
p3634
aVsome
p3635
aVmawero
p3636
aVestage
p3637
aVahero
p3638
aVjakamera
p3639
aVlearn
p3640
aVpala
p3641
aVjogi
p3642
aVkonsaga
p3643
aVmajango
p3644
aVoweyo
p3645
aVemakelo
p3646
aVojoo
p3647
aVoweye
p3648
aVruothgi
p3649
aVochopne
p3650
aVmitira
p3651
aVboka
p3652
aVbidii
p3653
aVkanjira
p3654
aVanna
p3655
aVmasogo
p3656
aVsixteen
p3657
aVwithur
p3658
aVotimodend
p3659
aVombei
p3660
aVmayach
p3661
aVmosi
p3662
aVnyasiaya
p3663
aVnelly
p3664
aVombey
p3665
aVnyakarabundi
p3666
aVtaboo
p3667
aVodog
p3668
aVfaith
p3669
aVkaen
p3670
aViriyo
p3671
aVombehi
p3672
aVokumbe
p3673
aVhasan
p3674
aVfurut
p3675
aVbabana
p3676
aVidi
p3677
aVgiduto
p3678
aVexperince
p3679
aVadumai
p3680
aVtairas
p3681
aVida
p3682
aVajulo
p3683
aVjohny
p3684
aVoniang
p3685
aVinto
p3686
aVwithin
p3687
aVinspecta
p3688
aVatwan
p3689
aVogada
p3690
aVongielo
p3691
aVokonegore
p3692
aVatimokinda
p3693
aVakuwayo
p3694
aVanyal
p3695
aVneko
p3696
aVchenro
p3697
aVbe4
p3698
aVbruz
p3699
aVopenj
p3700
aVfast
p3701
aVlony
p3702
aVmkt
p3703
aVsuit
p3704
aVokwacha
p3705
aVsinai
p3706
aVboya
p3707
aVsinogo
p3708
aVmakatajokafiri
p3709
aVboyo
p3710
aVchumbe
p3711
aVjacky
p3712
aVngolo
p3713
aVngeny
p3714
aVline
p3715
aVjunior
p3716
aVreen
p3717
aVcliment
p3718
aVuta
p3719
aVerick
p3720
aVelida
p3721
aVgerliech
p3722
aVopondi
p3723
aVjamnazi
p3724
aVpolitic
p3725
aVmogik
p3726
aVnyithindo
p3727
aVmature
p3728
aVkunga
p3729
aVoduor
p3730
aVuhanya
p3731
aVmarkajulu
p3732
aVlastborn
p3733
aVjamuhanda
p3734
aVokanga
p3735
aVgimiwacho
p3736
aVomena
p3737
aVnyathina
p3738
aVichako
p3739
aVsingle
p3740
aVcure
p3741
aVnwona
p3742
aVfroot
p3743
aVmamwa
p3744
aV0702715175
p3745
aVoyula
p3746
aVkombe
p3747
aVtijena
p3748
aVtito
p3749
aVnai
p3750
aVtijeni
p3751
aVafamer
p3752
aVberyl
p3753
aVkamae
p3754
aVdepartment
p3755
aVkamam
p3756
aVnice
p3757
aVdakika
p3758
aVdala
p3759
aVwyckliffe
p3760
aVnaftal
p3761
aVenterprise
p3762
aVproblems
p3763
aVkora
p3764
aVakumu
p3765
aVbeshte
p3766
aVjopin
p3767
aVrambira
p3768
aVokanyal
p3769
aVmomiyo
p3770
aVleny
p3771
aVolale
p3772
aVago
p3773
aVmalandre
p3774
aValugah
p3775
aVomona
p3776
aVchemosit
p3777
aVnyikech
p3778
aVenmar
p3779
aVfresh
p3780
aVwende
p3781
aVwatim
p3782
aVjatishat
p3783
aVamisi
p3784
aVkanam
p3785
aVcynthia
p3786
aVmudho
p3787
aVjimo
p3788
aVjakomenya
p3789
aVkata
p3790
aVnyoro
p3791
aVedy
p3792
aVombeyi
p3793
aVadmited
p3794
aVjunia
p3795
aVmigi
p3796
aVongus
p3797
aVyoung
p3798
aVkaribu
p3799
aVsadhuru
p3800
aVnyawara
p3801
aVkanedhi
p3802
aVmeya
p3803
aVponge
p3804
aVjakob
p3805
aVasuma
p3806
aVfond
p3807
aVjagweno
p3808
aVepuodho
p3809
aVgina
p3810
aVragalo
p3811
aVjakom
p3812
aVkogno
p3813
aVkarota
p3814
aVjokanyaluo
p3815
aVclement
p3816
aVedwin
p3817
aVtang
p3818
aVjarodi
p3819
aVjoel
p3820
aVbabwa
p3821
aVolal
p3822
aVolam
p3823
aVaswa
p3824
aVjafres
p3825
aVmin
p3826
aVimoso
p3827
aVkobiero
p3828
aVnbange
p3829
aVwandasi
p3830
aVrach
p3831
aVkaliech
p3832
aVjuma
p3833
aValango
p3834
aVkidogo
p3835
aVmbili
p3836
aVorot
p3837
aVkakelo
p3838
aVjaurunda
p3839
aVchomo
p3840
aVoalo
p3841
aVodm
p3842
aVothiedhe
p3843
aVooro
p3844
aVoda
p3845
aVrrr
p3846
aVvictor
p3847
aVpoul
p3848
aVokello
p3849
aVbusiness
p3850
aVanton
p3851
aVfadhe
p3852
aVeyor
p3853
aVodemba
p3854
aVkorua
p3855
aVbiro
p3856
aVdaraja
p3857
aVlize
p3858
aVnicholas
p3859
aVbody
p3860
aVlutheran
p3861
aVjaklamo
p3862
aViketna
p3863
aVlem
p3864
aVleo
p3865
aVbodi
p3866
aVfollowing
p3867
aVler
p3868
aVles
p3869
aVlet
p3870
aVbodo
p3871
aVoloo
p3872
aVmasinde
p3873
aVnyanango
p3874
aVgreat
p3875
aVonyoso
p3876
aVpheny
p3877
aVndani
p3878
aVdioces
p3879
aVduncan
p3880
aVcalvin
p3881
aVdongruok
p3882
aVmicah
p3883
aVnyadulo
p3884
aVonyango
p3885
aVgeng
p3886
aValois
p3887
aVorian
p3888
aVsheila
p3889
aVsiasa
p3890
aVpresidents
p3891
aVwil
p3892
aVmatieko
p3893
aVobach
p3894
aVjacha
p3895
aVgimoro
p3896
aVadhaya
p3897
aVasan
p3898
aVnyamori
p3899
aVjauma
p3900
aVasam
p3901
aVvipi
p3902
aVokana
p3903
aVochar
p3904
aVfrom
p3905
aVjokama
p3906
aVawinj
p3907
aVoruko
p3908
aVgimary
p3909
aVasahi
p3910
aVbaba
p3911
aVpuonje
p3912
aVisak
p3913
aVyelow
p3914
aVirito
p3915
aVotho
p3916
aVkiost
p3917
aVkodero
p3918
aVawillo
p3919
aVnilikuomba
p3920
aVbaby
p3921
aVabebo
p3922
aVorono
p3923
aVlavatsa
p3924
aVkanyimach
p3925
aVjakadem
p3926
aVsalad
p3927
aVjipanoran
p3928
aVthis
p3929
aVmabor
p3930
aVopog
p3931
aVmamawa
p3932
aVkakajey
p3933
aVmadwaro
p3934
aVthim
p3935
aVchrch
p3936
aVonguon
p3937
aVjarech
p3938
aVkoso
p3939
aVtau
p3940
aVgirito
p3941
aVongei
p3942
aVjen
p3943
aVdaki
p3944
aVhigh
p3945
aVongeyi
p3946
aVsomething
p3947
aVmilicent
p3948
aVchoo
p3949
aVkenna
p3950
aVdomnik
p3951
aVminya
p3952
aVphelix
p3953
aVnyiminena
p3954
aVdomnic
p3955
aVoyieyo
p3956
aVmakawudo
p3957
aVberrel
p3958
aVgwara
p3959
aVdwa
p3960
aVsin
p3961
aV0717
p3962
aVkobudho
p3963
aVokiri
p3964
aVkenedi
p3965
aVmamin
p3966
aVoyaya
p3967
aVbagdal
p3968
aViren
p3969
aVnyangao
p3970
aVofunmlia
p3971
aVkenyans
p3972
aVbursary
p3973
aVanyuongi
p3974
aVnejo
p3975
aVrealized
p3976
aVagwingi
p3977
aVwiu
p3978
aVlinet
p3979
aVmartine
p3980
aVchief
p3981
aVwayasi
p3982
aVroad
p3983
aVnancy
p3984
aVchiem
p3985
aVchien
p3986
aVotieno
p3987
aVongili
p3988
aVivone
p3989
aVaturo
p3990
aVnyamera
p3991
aVnyause
p3992
aVanankaankiwa
p3993
aVoginga
p3994
aVeruoth
p3995
aVwarren
p3996
aVkasure
p3997
aVsalim
p3998
aVbrian
p3999
aVdimba
p4000
aVranguma
p4001
aVnyahera
p4002
aVanotis
p4003
aVosalla
p4004
aVorange
p4005
aVobola
p4006
aVimora
p4007
aV2012
p4008
aVdad
p4009
aVnadi
p4010
aVjunction
p4011
aVkorwenje
p4012
aVwichlum
p4013
aVgimoni
p4014
aVdan
p4015
aVoranges
p4016
aVdak
p4017
aVonyaloko
p4018
aVdav
p4019
aVfia
p4020
aVema
p4021
aVday
p4022
aVmagrate
p4023
aVsamoro
p4024
aVjomabeyo
p4025
aVjanamba
p4026
aVjapuonj
p4027
aVnyundo
p4028
aVuniversity
p4029
aVakulo
p4030
aVawage
p4031
aVbilly
p4032
aVadienge
p4033
aVbacho
p4034
aVbetty
p4035
aVnikare
p4036
aVkericho
p4037
aVrayo
p4038
aVsande
p4039
aVnyisi
p4040
aVweyi
p4041
aVjackob
p4042
aVsociety
p4043
aVdorca
p4044
aVionge
p4045
aVous
p4046
aVour
p4047
aVout
p4048
aVwawinji
p4049
aVlolwd
p4050
aVwakonye
p4051
aVkakamega
p4052
aVrev
p4053
aVankephas
p4054
aVkinyozi
p4055
aVkamlambo
p4056
aVvct
p4057
aVwer
p4058
aVwich
p4059
aVcause
p4060
aVmati
p4061
aVunda
p4062
aVecd
p4063
aVwach
p4064
aVmolly
p4065
aVgreedy
p4066
aViebc
p4067
aVaviko
p4068
aVguya
p4069
aVnyamrerwa
p4070
aVphilip
p4071
aVsunsiro
p4072
aVtach
p4073
aVdays
p4074
aVher
p4075
aVchilla
p4076
aVbeatrece
p4077
aVdichwo
p4078
aVelector
p4079
aVivon
p4080
aVkanyolingo
p4081
aVkanyathi
p4082
aVhence
p4083
aVnyawasi
p4084
aVlinnet
p4085
aVsouth
p4086
aVkulalane
p4087
aVevans
p4088
aVmaromo
p4089
aVsack
p4090
aVtairus
p4091
aVbudho
p4092
aVkadiemo
p4093
aVnyathi
p4094
aVboza
p4095
aVmigori
p4096
aVmaurice
p4097
aVjaoko
p4098
aVmachwogi
p4099
aVapelly
p4100
aVkoturo
p4101
aVfinal
p4102
aVnyakach
p4103
aVnyal
p4104
aVatoti
p4105
aVlot
p4106
aVouya
p4107
aVnyak
p4108
aVoriang
p4109
aVawidow
p4110
aVnyaa
p4111
aVkansila
p4112
aVmanyakelo
p4113
aVanene
p4114
aVudi
p4115
aVoga
p4116
aVnyar
p4117
aVamosou
p4118
aVyrs
p4119
aVben
p4120
aVnegowa
p4121
aVhecheki
p4122
aVojwang
p4123
aVnigiwinjo
p4124
aVber
p4125
aVbeuty
p4126
aVrfsl
p4127
aVdheks
p4128
aVkosomo
p4129
aVtabu
p4130
aVodhiambo
p4131
aVmathayo
p4132
aVhave
p4133
aVnorth
p4134
aVtido
p4135
aVjadu
p4136
aVmanane
p4137
aVatic
p4138
aVisaka
p4139
aVmilly
p4140
aVmakaudo
p4141
aVmia
p4142
aVlilo
p4143
aVlili
p4144
aVmig
p4145
aVatis
p4146
aVakach
p4147
aVwhich
p4148
aVmargy
p4149
aVlinda
p4150
aVmit
p4151
aVngano
p4152
aVjonyakongo
p4153
aVjasukari
p4154
aVemly
p4155
aVadier
p4156
aVchiro
p4157
aVcentre
p4158
aVawendo
p4159
aVtahifa
p4160
aVmaurine
p4161
aVmovin
p4162
aVwht
p4163
aVkamagambo
p4164
aVsinyanya
p4165
aVoyamo
p4166
aVkulala
p4167
aVkamodi
p4168
aVsally
p4169
aVclass
p4170
aVjamawira
p4171
aVolwenya
p4172
aVfier
p4173
aV0dhare
p4174
aVuru
p4175
aVfundi
p4176
aVochillo
p4177
aVahinya
p4178
aVappostle
p4179
aVkendu
p4180
aVrambara
p4181
aV0707
p4182
aVsansiro
p4183
aVmakowone
p4184
aVkoni
p4185
aVdorothi
p4186
aVcharles
p4187
aVomela
p4188
aVmiyo
p4189
aVbring
p4190
aVmiwa
p4191
aVjomamosago
p4192
aVndikruok
p4193
aVgori
p4194
aVawinjie
p4195
aVfear
p4196
aVtarik
p4197
aVstaff
p4198
aVelly
p4199
aVusenge
p4200
aVsiany
p4201
aVndilo
p4202
aVtire
p4203
aVwith
p4204
aVshould
p4205
aVeduwin
p4206
aVplanted
p4207
aVcandidates
p4208
aVjak
p4209
aVmuga
p4210
aVksm
p4211
aVnyakojula
p4212
aVkantie
p4213
aVlocal
p4214
aVhope
p4215
aVjaber
p4216
aVgodiochieng
p4217
aVjafrut
p4218
aVmageno
p4219
aVbediie
p4220
aVemasani
p4221
aVkadete
p4222
aVmolem
p4223
aVketna
p4224
aVbondo
p4225
aVanandi
p4226
aVjaso
p4227
aVlalo
p4228
aVmapenzi
p4229
aVwetena
p4230
aVmarried
p4231
aVwamor
p4232
aVshe
p4233
aVopande
p4234
aVjayala
p4235
aVamoyo
p4236
aVnamlolwe
p4237
aVjatelo
p4238
aVwanyama
p4239
aVaduera
p4240
aVngima
p4241
aVmawinjo
p4242
aVodong
p4243
aVjiranda
p4244
aVsospeter
p4245
aVmiek
p4246
aVapenjo
p4247
aVeofis
p4248
aVabudho
p4249
aVtene
p4250
aVogodo
p4251
aVusigu
p4252
aVebudho
p4253
aVayieye
p4254
aVruoth
p4255
aVtimbe
p4256
aVemail
p4257
aVdirty
p4258
aVken
p4259
aVjanes
p4260
aVkel
p4261
aVjanet
p4262
aVjoy
p4263
aVmelda
p4264
aVauko
p4265
aVbudebun
p4266
aVjaneopiyo
p4267
aVmerry
p4268
aVjasega
p4269
aVjoj
p4270
aVket
p4271
aVachiedh
p4272
aVdavid
p4273
aVodeny
p4274
aVjoko
p4275
aVkatedo
p4276
aV23yrs
p4277
aVakwa
p4278
aVayiegi
p4279
aVkapkatet
p4280
aVayiego
p4281
aVjoka
p4282
aVnyare
p4283
aVmaseno
p4284
aVetc
p4285
aVramo
p4286
aViwuok
p4287
aVwear
p4288
aVmopong
p4289
aVjamhuri
p4290
aVonyuera
p4291
aVkingi
p4292
aVgita
p4293
aVmaliet
p4294
aVapwoyo
p4295
aVdosila
p4296
aVsoweto
p4297
aVkamrongo
p4298
aVminevon
p4299
aVincest
p4300
aVoria
p4301
aVjohana
p4302
aVmadanje
p4303
aVwilly
p4304
aVtieng
p4305
aVrumo
p4306
aVcatherin
p4307
aVondijo
p4308
aVsilvia
p4309
aVsara
p4310
aVcommissoner
p4311
aVjotelo
p4312
aVyan
p4313
aVjabando
p4314
aVemmaculet
p4315
aVlavenda
p4316
aVondeto
p4317
aVoti
p4318
aVwatiuru
p4319
aVjiduto
p4320
aVmika
p4321
aVjatshirt
p4322
aVote
p4323
aVchuor
p4324
aVogilo
p4325
aVlavester
p4326
aVmamagi
p4327
aVkimari
p4328
aVdedem
p4329
aVchaly
p4330
aVoliewo
p4331
aVkanyakla
p4332
aVomondi
p4333
aVkopingo
p4334
aVkitieko
p4335
aVwill
p4336
aVataka
p4337
aVsirikal
p4338
aVosolo
p4339
aVkaponi
p4340
aVjapeng
p4341
aVnyamila
p4342
aVserre
p4343
aVmsalape
p4344
aVcoz
p4345
aVlichma
p4346
aVsiruti
p4347
aVblood
p4348
aVkeyo
p4349
aVosala
p4350
aVkaluwre
p4351
aVthum
p4352
aVttc
p4353
aVmarmamboleo
p4354
aVnyore
p4355
aVgeta
p4356
aVochop
p4357
aVjaboka
p4358
aVsadhru
p4359
aVorumo
p4360
aVdickens
p4361
aVkweli
p4362
aVmigwa
p4363
aVauonda
p4364
aVlookin
p4365
aVsuzy
p4366
aVav1
p4367
aVbala
p4368
aVmze
p4369
aVlieta
p4370
aVnade
p4371
aVodhine
p4372
aVdaudi
p4373
aVosomo
p4374
aVjaohand
p4375
aVkeep
p4376
aVjaraa
p4377
aVjapur
p4378
aVjwala
p4379
aVagotich
p4380
aVcenter
p4381
aVgiwinj
p4382
aVwell
p4383
aVotaro
p4384
aVwelo
p4385
aVofwenyo
p4386
aVrispar
p4387
aVschl
p4388
aVobuongo
p4389
aVkamser
p4390
aVngware
p4391
aVdhitedo
p4392
aVnguno
p4393
aVoyaw
p4394
aVbananas
p4395
aVonde
p4396
aVhali
p4397
aValedi
p4398
aVjakabonyo
p4399
aVpaul
p4400
aVads
p4401
aVjaro
p4402
aVlwala
p4403
aVotas
p4404
aVlake
p4405
aVwel
p4406
aVpapohapo
p4407
aVwinnie
p4408
aVjaduong
p4409
aVkamago
p4410
aVsmart
p4411
aVoketi
p4412
aVodiochieng
p4413
aVadhiambo
p4414
aVmachielo
p4415
aVoloko
p4416
aVkoyoo
p4417
aVkagan
p4418
aVokite
p4419
aVfive
p4420
aVfiyar
p4421
aVstanbradox
p4422
aVtich
p4423
aVjasuba
p4424
aVkagimaki
p4425
aVoteni
p4426
aVnyarerwa
p4427
aVlilian
p4428
aVemma
p4429
aVlike
p4430
aVmamboleo
p4431
aVemillymin
p4432
aVondikre
p4433
aVoluonga
p4434
aV4me
p4435
aVmartin
p4436
aVrota
p4437
aVawasi
p4438
aVbecause
p4439
aVwuodkwaru
p4440
aVokuta
p4441
aVopere
p4442
aVobado
p4443
aVadonjo
p4444
aVimiya
p4445
aVoneko
p4446
aVkits
p4447
aVmiyago
p4448
aVpeter
p4449
aVjoguda
p4450
aVhappens
p4451
aVwendi
p4452
aVavoid
p4453
aVdago
p4454
aVagutu
p4455
aVifuwana
p4456
aVdoes
p4457
aVkwee
p4458
aVmigingo
p4459
aVeso
p4460
aVogolne
p4461
aVokech
p4462
aVleader
p4463
aVenuf
p4464
aVidlers
p4465
aVchally
p4466
aVokweso
p4467
aVmakendo
p4468
aVmillicent
p4469
aVdhano
p4470
aVtijenga
p4471
aVhosp
p4472
aVpasta
p4473
aVfeare
p4474
aViseruenyo
p4475
aVbigben
p4476
aVndazi
p4477
aVwadaguru
p4478
aVndi
p4479
aVsister
p4480
aVndo
p4481
aVnoyudo
p4482
aVasha
p4483
aVgidion
p4484
aVblessings
p4485
aValuore
p4486
aVmourice
p4487
aVragengni
p4488
aVobiero
p4489
aVjalamo
p4490
aVgiereru
p4491
aVkwach
p4492
aVbeen
p4493
aVregistration
p4494
aVoketho
p4495
aVochanda
p4496
aVemakoro
p4497
aVjaposhomill
p4498
aVawuonda
p4499
aVjayalo
p4500
aVwakajulu
p4501
aVwasee
p4502
aVkapuonja
p4503
aVsansir
p4504
aVogoyo
p4505
aVkanyakoo
p4506
aVfrustration
p4507
aVogoya
p4508
aVmahaya
p4509
aVondiek
p4510
aVaduoko
p4511
aVfundy
p4512
aVkanga
p4513
aVoseromo
p4514
aVbut
p4515
aVadwuoko
p4516
aVbun
p4517
aVnyaugenya
p4518
aVmargi
p4519
aVaduwa
p4520
aVdavide
p4521
aVfunde
p4522
aValso
p4523
aVdhine
p4524
aVnyakwar
p4525
aVaustin
p4526
aVwuora
p4527
aVndalo
p4528
aVwiliam
p4529
aVmwuonyo
p4530
aVjawinjo
p4531
aVcella
p4532
aVngando
p4533
aVproblem
p4534
aVjatisirt
p4535
aVmatar
p4536
aVadhiyadhiya
p4537
aVpii
p4538
aVplay
p4539
aVpin
p4540
aVpio
p4541
aVowego
p4542
aVanji
p4543
aVbeatrice
p4544
aVndheckz
p4545
aVkimwonyo
p4546
aVobunge
p4547
aVolwalo
p4548
aVisaack
p4549
aVeducation
p4550
aVcampus
p4551
aVodngo
p4552
aVnambana
p4553
aVeyamo
p4554
aVtyme
p4555
aVkokal
p4556
aVmamaval
p4557
aVother
p4558
aVmagret
p4559
aVboon
p4560
aVkanisa
p4561
aVbooker
p4562
aVolili
p4563
aVaringo
p4564
aVkindu
p4565
aVwanje
p4566
aVgitich
p4567
aVdhod
p4568
aVtokod
p4569
aVsadaka
p4570
aVowich
p4571
aVmargaret
p4572
aVkinde
p4573
aVkepher
p4574
aVgwayo
p4575
aVkinda
p4576
aVmiyowa
p4577
aVfriends
p4578
aVkend
p4579
aVrich
p4580
aVkanyaluo
p4581
aVadiera
p4582
aVapuonjo
p4583
aVagood
p4584
aVjenifa
p4585
aVuriri
p4586
aVrep
p4587
atp4588
Rp4589
sVLuganda
p4590
g2
((lp4591
Vejjaga
p4592
aVbrenda
p4593
aVssempijja
p4594
aVjosephine
p4595
aVebijugo
p4596
aVlwengo
p4597
aVgange
p4598
aVkato
p4599
aVgujja
p4600
aVpaul
p4601
aVekisanje
p4602
aVbuddu
p4603
aVgayinza
p4604
aVronald
p4605
aVtewali
p4606
aVabantu
p4607
aVkibuli
p4608
aVbeekalaze
p4609
aVmasaka
p4610
aVlure
p4611
aVsamuel
p4612
aVssemugenyi
p4613
aVndabye
p4614
aVkwo
p4615
aVnyendo
p4616
aVejinja
p4617
aVyudaya
p4618
aVnanyoonga
p4619
aVfaer
p4620
aValex
p4621
aVkateregga
p4622
aVssekalo
p4623
aVkalisizo
p4624
aVmulwadde
p4625
aVtalina
p4626
aVembuto
p4627
aVkavuuze
p4628
aVbenjamin
p4629
aVomusujja
p4630
aVstanley
p4631
aVfear
p4632
aVokuzala
p4633
aVbangabye
p4634
aVsedric
p4635
aVmaralia
p4636
aVtusuubira
p4637
aVmusujja
p4638
aVmugoya
p4639
aVwilly
p4640
aVkufa
p4641
aVmusisi
p4642
aVdagala
p4643
aVndagire
p4644
aVfred
p4645
aVnti
p4646
aVbwe
p4647
aVnga
p4648
aVndi
p4649
aVkaggogwa
p4650
aVrigan
p4651
aVnyinza
p4652
aVbatandika
p4653
aVbangi
p4654
aVwalusimbi
p4655
aVlwabenge
p4656
aVbijjaba
p4657
aVono
p4658
aVjuma
p4659
aVmuky
p4660
aVekampala
p4661
aVvampaya
p4662
aVbazala
p4663
aVsarah
p4664
aVfrom
p4665
aVbudu
p4666
aVmsw
p4667
aVfrm
p4668
aVmatovu
p4669
aVashiraph
p4670
aVjoseph
p4671
aVlwo
p4672
aVbafunye
p4673
aVnkyagala
p4674
aVjohn
p4675
aVdevis
p4676
aVokusasika
p4677
aVobulumi
p4678
aVemutungo
p4679
aVbakyala
p4680
aVgrace
p4681
aVbusega
p4682
aVmukirombe
p4683
aVkampala
p4684
aVavi
p4685
aVeruzira
p4686
aVbayitamu
p4687
aVnze
p4688
aVlya
p4689
aVarafat
p4690
aVphotoman
p4691
aVvinsent
p4692
aVekasenge
p4693
aVabaana
p4694
aVaids
p4695
aVomuzimbi
p4696
aVtonny
p4697
aVbuwenda
p4698
aVbalamu
p4699
aVjesca
p4700
aVekibinge
p4701
aVbisaso
p4702
aVpaulo
p4703
aVnyo
p4704
aVamaka
p4705
aVjonh
p4706
aVronnie
p4707
aVyiga
p4708
aVokundowoloeza
p4709
aVav1
p4710
aVav2
p4711
aVnsaale
p4712
aVdistrict
p4713
aVmwenzi
p4714
aVkasagga
p4715
aVnjokambi
p4716
aVkuba
p4717
aVewobulenzi
p4718
aVhaluna
p4719
aVbuudu
p4720
aVkabale
p4721
atp4722
Rp4723
sVNyanja
p4724
g2
((lp4725
Vbongobongo
p4726
aVbwalya
p4727
aVsch
p4728
aVmpando
p4729
aVkufunika
p4730
aVndaba
p4731
aVbagx
p4732
aVchipangali
p4733
aVfarms
p4734
aVmbusa
p4735
aVyilibe
p4736
aVimathesa
p4737
aVchikuwe
p4738
aVshumba
p4739
aVcaptain
p4740
aVchisi
p4741
aVchilungamo
p4742
aVcauses
p4743
aVsimon
p4744
aVchimsakasa
p4745
aVchapa
p4746
aVmopanda
p4747
aVdisposal
p4748
aVmabvuto
p4749
aVyoung
p4750
aVmuchenga
p4751
aVmseteka
p4752
aVchinyaku
p4753
aVedward
p4754
aVelias
p4755
aVkusavela
p4756
aVunder
p4757
aVsibwino
p4758
aVkapala
p4759
aV2mmorow
p4760
aVvikwati
p4761
aVesther
p4762
aVgino
p4763
aVjere
p4764
aVsalibwino
p4765
aVtizayamba
p4766
aVngakhare
p4767
aVwilfred
p4768
aVjack
p4769
aVirimbe
p4770
aVisaiah
p4771
aVndake
p4772
aVakazi
p4773
aVentire
p4774
aVschool
p4775
aVmnukwa
p4776
aVmusanga
p4777
aVmarry
p4778
aVlinaikidwa
p4779
aVnthambo
p4780
aVjulius
p4781
aVmgubudu
p4782
aVsection
p4783
aVsmall
p4784
aVbarracks
p4785
aVilo
p4786
aVkucipatala
p4787
aVstores
p4788
aVleaders
p4789
aVtioneone
p4790
aVshadreck
p4791
aVkachinga
p4792
aVento
p4793
aVmwasemphangwe
p4794
aVkambale
p4795
aVmlolo
p4796
aVstreet
p4797
aVwa15yers
p4798
aVchilumbu
p4799
aVkwenda
p4800
aVnyalazi
p4801
aVnyirenda
p4802
aVsichilisika
p4803
aVakhala
p4804
aVmpovuta
p4805
aVeducate
p4806
aVabia
p4807
aVtinkhani
p4808
aVrichard
p4809
aVeliza
p4810
aVchinkhombe
p4811
aVakatengela
p4812
aVmlodzera
p4813
aVchildren
p4814
aVndina
p4815
aVkapata
p4816
aVkacholola
p4817
aVkumwalila
p4818
aVndine
p4819
aVtitandizeka
p4820
aVnew
p4821
aVnicholas
p4822
aVdaily
p4823
aV4rom
p4824
aVtikamaliza
p4825
aVbcause
p4826
aVnever
p4827
aVmbiri
p4828
aVakapasiwa
p4829
aVhere
p4830
aVobvuta
p4831
aVkwambiri
p4832
aVmontez
p4833
aVmpetawayenga
p4834
aVlet
p4835
aVroyd
p4836
aVwebster
p4837
aVnyimba
p4838
aVchipata
p4839
aVmakungwa
p4840
aVnidala
p4841
aVkatete
p4842
aVsogoro
p4843
aVboy
p4844
aVnyelele
p4845
aVzone
p4846
aVhouses
p4847
aVkwachelanji
p4848
aVchimbilima
p4849
aVmtumpha
p4850
aVdaliso
p4851
aVmiti_adraida
p4852
aVcargill
p4853
aVbon
p4854
aVamafunikira
p4855
aVkuika
p4856
aVdambalika
p4857
aVpakhlemalile
p4858
aVchritine
p4859
aVdoris
p4860
aVthats
p4861
aV0973347026
p4862
aVnyaphande
p4863
aVzilizonse
p4864
aV_amasokonedza
p4865
aVkumwa
p4866
aVmaufulu
p4867
aVafrica
p4868
aVsgt
p4869
aVjabesy
p4870
aVkawinga
p4871
aVnichosaledwa
p4872
aVwayekha
p4873
aVapo
p4874
aVafunika
p4875
aVkulekeza
p4876
aVngoma
p4877
aValepha
p4878
aVkapichila
p4879
aVmarket
p4880
aVitezhi
p4881
aVasikana
p4882
aVuse
p4883
aVfrancis
p4884
aVfrom
p4885
aVakafika
p4886
aVchakuti
p4887
aVaziba
p4888
aVkeijueno
p4889
aVaya
p4890
aVtwo
p4891
aVchfukwa
p4892
aVcho
p4893
aVsoko
p4894
aVwabwino
p4895
aVzemba
p4896
aVcalo
p4897
aVtaken
p4898
aV0965602939
p4899
aVkaizole
p4900
aVcare
p4901
aVmalawi
p4902
aVtikali
p4903
aVmore
p4904
aVlungu
p4905
aVbecouse
p4906
aVchadiza
p4907
aVfemales
p4908
aVzinthu
p4909
aVgwilisa
p4910
aVbrings
p4911
aVcarryng
p4912
aVefford
p4913
aVwopani
p4914
aVkunyamulilamo
p4915
aVhamweene
p4916
aVbgas
p4917
aVnkhata
p4918
aVchalala
p4919
aVmirriam
p4920
aVbaby
p4921
aVcases
p4922
aVakwanise
p4923
aVmust
p4924
aVtown
p4925
aVtisatile
p4926
aVkupha
p4927
aVkodi
p4928
aVthis
p4929
aVgabriel
p4930
aVkaluwa
p4931
aVkutumila
p4932
aVabsten
p4933
aVcan
p4934
aVlearn
p4935
aVmaking
p4936
aVmale
p4937
aVvilage
p4938
aVbdaka
p4939
aVlangson
p4940
aVdaka
p4941
aVmupaso
p4942
aVakatha
p4943
aVnkhuwa
p4944
aVgive
p4945
aVpakanthawi
p4946
aVlubinda
p4947
aVmankhala
p4948
aVchizongwe
p4949
aVpolluts
p4950
aVtapela
p4951
aVgabby
p4952
aVpamuzi
p4953
aVdavid
p4954
aVchif
p4955
aVmwale
p4956
aVmchewele
p4957
aVena
p4958
aVneeds
p4959
aVemelda
p4960
aVkusavera
p4961
aVpangabwele
p4962
aVafa
p4963
aVukawalala
p4964
aVbrian
p4965
aVdwa
p4966
aVmumaola
p4967
aVzambanja
p4968
aVvirege
p4969
aVmasuzyo
p4970
aVnimfwa
p4971
aVbegs
p4972
aVamake
p4973
aVmalaria
p4974
aVadis
p4975
aVbombwe
p4976
aVelizabeth
p4977
aVyovuta
p4978
aVzilizose
p4979
aVsouthern
p4980
aVlaston
p4981
aVtizisamala
p4982
aVcingacepese
p4983
aVayenera
p4984
aVmkazi
p4985
aVmag
p4986
aVaanthu
p4987
aVmai
p4988
aVpresident
p4989
aValovinala
p4990
aVmkalema
p4991
aVcomp
p4992
aVroyce
p4993
aVchiet
p4994
aVndipo
p4995
aVdemocracy
p4996
aVcakuti
p4997
aVwhiteson
p4998
aVeducation
p4999
aVkuchokera
p5000
aVgunda
p5001
aVkma
p5002
aVsichedwa
p5003
aVkhulika
p5004
aVchief
p5005
aVdavies
p5006
aVroad
p5007
aVkeeps
p5008
aVmange
p5009
aVdemocratic
p5010
aVmwandila
p5011
aVpaziko
p5012
aVfor
p5013
aVkusamva
p5014
aVtimataya
p5015
aVhelp
p5016
aVukachedwa
p5017
aVmatildah
p5018
aVkupanga
p5019
aVsifumu
p5020
aVjabu
p5021
aVamacita
p5022
aVumafamw
p5023
aVndi
p5024
aVilibe
p5025
aVpaper
p5026
aVmumbi
p5027
aVmpanso
p5028
aVamamwalire
p5029
aVgift
p5030
aVnotaya
p5031
aVmumba
p5032
aVoperative
p5033
aVminga
p5034
aVsakala
p5035
aVlimby
p5036
aVlesya
p5037
aVjim
p5038
aVtimathandizika
p5039
aVitani
p5040
aVpena
p5041
aVstephen
p5042
aVndithandizo
p5043
aVtembo
p5044
aVchinunda
p5045
aVcompaund
p5046
aVmfuwe
p5047
aVthem
p5048
aVgood
p5049
aVmukazi
p5050
aVdam
p5051
aVbwino
p5052
aVkiller
p5053
aVephrem
p5054
aVnation
p5055
aVsaule
p5056
aVngatisiunapitemwamsangakuchipatala
p5057
aVphri
p5058
aVmoyenela
p5059
aVferguson
p5060
aVthey
p5061
aVhapen
p5062
aVnot
p5063
aVdimerits
p5064
aVchirwa
p5065
aVdown
p5066
aVkaole
p5067
aValex
p5068
aVrobbie
p5069
aVkomanso
p5070
aVmisheck
p5071
aVjames
p5072
aVbimayele
p5073
aVmonsasamalira
p5074
aVkumbenjele
p5075
aVhospto
p5076
aVchimpondo
p5077
aVakulu
p5078
aVkulundazi
p5079
aVazipitiliza
p5080
aValiyense
p5081
aVnanyangwe
p5082
aVman
p5083
aVnimayopela
p5084
aVcropping
p5085
aVvenders
p5086
aVngati
p5087
aVphiri
p5088
aVschemes
p5089
aVmadalitso
p5090
aVfobby
p5091
aVreduce
p5092
aVmugoza
p5093
aVmadzimawe
p5094
aVkana
p5095
aVyosalimba
p5096
aVroads
p5097
aVufulu
p5098
aVmaphunziro
p5099
aVonence
p5100
aVmbanja
p5101
aVyeas
p5102
aVkumwenda
p5103
aVour
p5104
aVgirl
p5105
aVubeleke
p5106
aVmatias
p5107
aVkuchipatala
p5108
aVkupaya
p5109
aVmsekera
p5110
aVchife
p5111
aVmotel
p5112
aVkupitiliza
p5113
aVnchito
p5114
aVincrease
p5115
aVbamacitilamo
p5116
aVmalaria_ndawa
p5117
aVzambiri
p5118
aVmanda
p5119
aVmabwe
p5120
aVmponda
p5121
aVkwagino
p5122
aVboloma
p5123
aVeary
p5124
aVbenjamin
p5125
aVficklin
p5126
aVmlenga
p5127
aVlawrence
p5128
aVtacedwa
p5129
aVmwape
p5130
aVchisomo
p5131
aVnyakutwa
p5132
aVfred
p5133
aVatsikana
p5134
aVcimaiwalika
p5135
aVshud
p5136
aVyaboma
p5137
aVukakwidwa
p5138
aVhelard
p5139
aVjairos
p5140
aVnishi
p5141
aVgodfrey
p5142
aVkumanja
p5143
aVronald
p5144
aVmshanga
p5145
aVkoma
p5146
aVelibe
p5147
aVatuwa
p5148
aVmwamuna
p5149
aVturn
p5150
aVnjekwa
p5151
aVbinwell
p5152
aVyess
p5153
aVkuno
p5154
aVise
p5155
aVaubasi
p5156
aVfrome
p5157
aVmwenda
p5158
aVplastics
p5159
aVono
p5160
aVakufa
p5161
aVundii
p5162
aVchasefu
p5163
aVbonface
p5164
aVchisenjere
p5165
aVnyirongo
p5166
aVmphande
p5167
aVakakhalitsa
p5168
aVmchinji
p5169
aVyer
p5170
aVndgne
p5171
aVgeorge
p5172
aVtem
p5173
aViam
p5174
aVmareliya
p5175
aVkapara
p5176
aVmwacdwa
p5177
aVmaleria
p5178
aVmsoro
p5179
aVsystem
p5180
aVcikuse
p5181
aVplastic
p5182
aVcathrin
p5183
aVoruala
p5184
aVimapaya
p5185
aVmaster
p5186
aVchanje
p5187
aVireen
p5188
aVplastix
p5189
aVscheme
p5190
aVamunthu
p5191
aVkwaoneka
p5192
aVakankhalisa
p5193
aVsuzen
p5194
aVmiliasi
p5195
aValbert
p5196
aVsukhandiumoyo
p5197
aVjane
p5198
aVkaulembe
p5199
aVamagwila
p5200
aVbecause
p5201
aVwinanso
p5202
aVmasala
p5203
aVmalalia
p5204
aVthan
p5205
aVpopulation
p5206
aVmercy
p5207
aVjohn
p5208
aVnyozani
p5209
aVktt
p5210
aVlazarous
p5211
aVyouth
p5212
aVamafa
p5213
aVsolomon
p5214
aVmalama
p5215
aVchobvuta
p5216
aVtikonyamulila
p5217
aVnzeru
p5218
aVcountry
p5219
aVkazimule
p5220
aVtrisha
p5221
aVmwase
p5222
aVang
p5223
aVana
p5224
aVsam
p5225
aVchikomeni
p5226
aVboston
p5227
aVlulu
p5228
aVani
p5229
aVtendai
p5230
aVkuvuta
p5231
aVocepa
p5232
aVkuti
p5233
aVkanyanga
p5234
aVneed
p5235
aVyees
p5236
aVingwe
p5237
aVmnyeche
p5238
aVzagwa
p5239
aVukaitola
p5240
aV3umutiwa
p5241
aVboyd
p5242
aVngona
p5243
aVvge
p5244
aValibe
p5245
aVsiyafuna
p5246
aVnthwi
p5247
aVyamapha
p5248
aVhigh
p5249
aVkaduku
p5250
aVtake
p5251
aVibex
p5252
aVtikagwitsa
p5253
aVakakhalisa
p5254
aVdestroy
p5255
aVmis
p5256
aVchimdidi
p5257
aVbrngz
p5258
aVsurf
p5259
aVnomanga
p5260
aVchipalamba
p5261
aVshall
p5262
aVnyanje
p5263
aVkuyizelu
p5264
aVnyamulengula
p5265
aVpakhale
p5266
aVjst
p5267
aVkelly
p5268
aVciwbolya
p5269
aVmagwelo
p5270
aVnothing
p5271
aVdube
p5272
aVchipetuka
p5273
aVkawingwa
p5274
aVpetauke
p5275
aVmapepala
p5276
aVikhala
p5277
aVngulube
p5278
aVmalile
p5279
aVfier
p5280
aVcamp
p5281
aVsikabiri
p5282
aVdisease
p5283
aVmrs
p5284
aVpaulendo
p5285
aVmagodi
p5286
aVntchito
p5287
aVmushe
p5288
aVclean
p5289
aVpaliponse
p5290
aVndalama
p5291
aVpipo
p5292
aVmambwe
p5293
aVkumuchosapo
p5294
aVkauzu
p5295
aVmwanza
p5296
aVukapuma
p5297
aVpaul
p5298
aVmadzi
p5299
aVmzenje
p5300
aVshow
p5301
aVmafungausi
p5302
aVungamwe
p5303
aVcharles
p5304
aVchiparamba
p5305
aVzatha
p5306
aVmerit
p5307
aVeliphas
p5308
aVamakwanitsa
p5309
aVmadekeli
p5310
aVkupulumuka
p5311
aVtiya
p5312
aVchikungu
p5313
aVnaomi
p5314
aVfear
p5315
aVone
p5316
aVamatha
p5317
aVapollo
p5318
aVambiri
p5319
aVkufukamo
p5320
aVacicepele
p5321
aVmatenda
p5322
aVfeni
p5323
aV1tayakwatumuti
p5324
aVmpiri
p5325
aVgrace
p5326
aVlupande
p5327
aVmuyeso
p5328
aVsipola
p5329
aVaywell
p5330
aVmoses
p5331
aVnjira
p5332
aVmankhwala
p5333
aVchimankhala
p5334
aVsairi
p5335
aVmalungo
p5336
aVkukwatiliwa
p5337
aVcecilia
p5338
aVhiv
p5339
aVemmanuel
p5340
aVnyamtuma
p5341
aVsamuel
p5342
aVmukulu
p5343
aVpamudzi
p5344
aVpopasana
p5345
aVnjra
p5346
aVchristopher
p5347
aVmalungu
p5348
aVsili
p5349
aVpakagono
p5350
aVzmwe
p5351
aVareas
p5352
aVsankho
p5353
aVchasato
p5354
aVzimaletesa
p5355
aValiele
p5356
aVkupondeleza
p5357
aVkutsokoneza
p5358
aVambili
p5359
aVmtonga
p5360
aVbag
p5361
aVchikowa
p5362
aVshe
p5363
aVcleverson
p5364
aVnthongole
p5365
aVvikuta
p5366
aVvincent
p5367
aVcornelious
p5368
aVview
p5369
aVuchuluka
p5370
aVmadam
p5371
aVkanga
p5372
aVackim
p5373
aVarv
p5374
aVbenard
p5375
aVnyukwa
p5376
aVchipatala
p5377
aVsizifunika
p5378
aVpads
p5379
aVkupyolera
p5380
aVchamasongwe
p5381
aVsaulosi
p5382
aVkukonza
p5383
aVterms
p5384
aVfeligo
p5385
aVlipitilire
p5386
aVmarraqe
p5387
aVzodwa
p5388
aVkunokupetauka
p5389
aVngawagwidwa
p5390
aVkutetha
p5391
aVolo
p5392
aVmshawa
p5393
aVasikanawo
p5394
aV2tabapolangawalwala
p5395
aVmakelen
p5396
aVchigaga
p5397
aVits
p5398
aVpaks
p5399
aVfuture
p5400
aVkusukulu
p5401
aVaction
p5402
aVchezela
p5403
aVmarriage
p5404
aVgaveni
p5405
aVsukulu
p5406
aVtsiku
p5407
aVnotice
p5408
aVmankhalala
p5409
aVcathreen
p5410
aVelders
p5411
aVpali
p5412
aVbecoz
p5413
aVyelani
p5414
aVmaleliya
p5415
aVfrackson
p5416
aVnkhu
p5417
aVmpaka
p5418
aVjoe
p5419
aVgreshus
p5420
aVchilombo
p5421
aVwth
p5422
aVchimpembe
p5423
aVbanja
p5424
aVmule
p5425
aVumoyo
p5426
aVazitikana
p5427
aVzakaria
p5428
aVangasunge
p5429
aVmonicas
p5430
aVvileg
p5431
aVjabson
p5432
aVmany
p5433
aVcoz
p5434
aVili
p5435
aVine
p5436
aVyakuti
p5437
aVannie
p5438
aVmabanz
p5439
aVboma
p5440
aVmazalen
p5441
aVtimathandizidwa
p5442
aVkupita
p5443
aVgrounds
p5444
aVkwa
p5445
aVand
p5446
aVbongo
p5447
aVthwala
p5448
aVchimate
p5449
aVamakhala
p5450
aVwithin
p5451
aVsky
p5452
aVothers
p5453
aVmusogoleli
p5454
aVcommunity
p5455
aVkey
p5456
aVyamuyaya
p5457
aVmwana
p5458
aVvakacani
p5459
aVninthenda
p5460
aVvillage
p5461
aVmnthanzi
p5462
aVchandema
p5463
aVwaly
p5464
aVbvuto
p5465
aVmangwe
p5466
aVdstrict
p5467
aVchifuka
p5468
aVfrm
p5469
aVyai
p5470
aVignitius
p5471
aVbasic
p5472
aVyoram
p5473
aVbenson
p5474
aVmary
p5475
aVkucita
p5476
aVchifukwa
p5477
aVlauwrence
p5478
aVnsadzu
p5479
aVnayo
p5480
aVndeni
p5481
aVamapha
p5482
aVakacedwakupita
p5483
aVlepu
p5484
aVkanyindula
p5485
aVfira
p5486
aVandrew
p5487
aVdavy
p5488
aVsiatwinda
p5489
aVndiye
p5490
aVvizmumba
p5491
aVnyangu
p5492
aVfuna
p5493
aVjosiyasi
p5494
aVchild
p5495
aVkujenda
p5496
aVwadziko
p5497
aV20yrs
p5498
aVazayamba
p5499
aVgracious
p5500
aViye
p5501
aVasnankwime
p5502
aVkusebezesha
p5503
aVsucceese
p5504
aVmkopeka
p5505
aVmoyo
p5506
aVamene
p5507
aVkuzzindkira
p5508
aVkupena
p5509
aVmchenga
p5510
aVkucipangari
p5511
aVaim
p5512
aVtimafunika
p5513
aVgondar
p5514
aVmicheal
p5515
aVjebeckx
p5516
aVvuta
p5517
aVmakolo
p5518
aVkamphawi
p5519
aVsokoloku
p5520
aVedzi
p5521
aVipasa
p5522
aVcifukwa
p5523
aVmilonga
p5524
aVnkhwewakhwewa
p5525
aVipitilile
p5526
aVhave
p5527
aVmupanene
p5528
aVmoth
p5529
aVmadzimoyo_chinjara
p5530
aVmalamulo
p5531
aVtinyamulilenge
p5532
aVnabvutika
p5533
aVcibvundula
p5534
aVnkowane
p5535
aVcant
p5536
aVnkhanga
p5537
aVkachakwala
p5538
aVmangwala
p5539
aVmtimba
p5540
aVmwenya
p5541
aVchifwa
p5542
aVkondwani
p5543
aVyakupha
p5544
aVbags
p5545
aVbaibe
p5546
aVskool
p5547
aVcovuta
p5548
aVvlge
p5549
aVdoctor
p5550
aVthings
p5551
aVmake
p5552
aVmsikana
p5553
aVmaka
p5554
aVkumwamba
p5555
aVpanthawi
p5556
aVsamvela
p5557
aVdamages
p5558
aVmasauso
p5559
aVtisavomeze
p5560
aVsamson
p5561
aVruth
p5562
aVmzibambo
p5563
aVaibs
p5564
aVsachita
p5565
aVokomela
p5566
aVsidzatha
p5567
aValot
p5568
aVimasausa
p5569
aVkelvin
p5570
aVluck
p5571
aVelemiya
p5572
aVav1
p5573
aVav2
p5574
aVkunhala
p5575
aVcipata
p5576
aVkazinkambani
p5577
aVmaumba
p5578
aVpenias
p5579
aVkhondowe
p5580
aVdine
p5581
aVprotected
p5582
aVnavutika
p5583
aVchembe
p5584
aVkamanga
p5585
aVfarm
p5586
aVoff
p5587
aVnibwino
p5588
aVsackson
p5589
aVulamuriro
p5590
aVumapola
p5591
aVkupambana
p5592
aVkusiyana
p5593
aVmathews
p5594
aVmchinzdale
p5595
aVmedson
p5596
aVbana
p5597
aVthe
p5598
aVchikwa
p5599
aVzonse
p5600
aVwamgono
p5601
aVlyson
p5602
aVlemek
p5603
aVpaulamulilo
p5604
aVkunyamuliramo
p5605
aVmphangwe
p5606
aVmsoni
p5607
aVambewe
p5608
aViyambenso
p5609
aVtingzittezere
p5610
aVyanje
p5611
aVumayenda
p5612
aVclinic
p5613
aVanthu
p5614
aVyrs
p5615
aVvulamkoko
p5616
aVnephtaly
p5617
aVyears
p5618
aVprovice
p5619
aVyes
p5620
aVonse
p5621
aVmsanga
p5622
aVchinjala
p5623
aVfamily
p5624
aVmanzi
p5625
aVmathias
p5626
aVesnat
p5627
aVpupu
p5628
aVwen
p5629
aVwel
p5630
aVkuletsa
p5631
aV4rm
p5632
aVlets
p5633
aVboard
p5634
aVlamulo
p5635
aVreason
p5636
aVchungu
p5637
aVhas
p5638
aVechondaitina
p5639
aVmantha
p5640
aVkusiriza
p5641
aVmakwara
p5642
aVrecycling
p5643
aVwhich
p5644
aVzulu
p5645
aVmaganizo
p5646
aVdnine
p5647
aVnikusinta
p5648
aVthupi
p5649
aVshanganani
p5650
aVmaulawo
p5651
aVsitali
p5652
aVpobeleka
p5653
aVbanda
p5654
aVlady
p5655
aVzimba
p5656
aVamon
p5657
aVsimukanga
p5658
aVpresdent
p5659
aVyopya
p5660
aValick
p5661
aVemma
p5662
aVaffodeble
p5663
aVchristine
p5664
aVfisheni
p5665
aVpatrick
p5666
aVkawala
p5667
aVukhwitsa
p5668
aVchamuthu
p5669
aVkuramurira
p5670
aVcofanka
p5671
aVochepekela
p5672
aVcheaf
p5673
aVnichadya
p5674
aVcletus
p5675
aVkuciyewe
p5676
aVcomzy
p5677
aVmunthu
p5678
aVmnthu
p5679
aVimapyola
p5680
aVkuli
p5681
aVsinda
p5682
aVdevepmnt
p5683
aVthinkn
p5684
aVpags
p5685
aVold
p5686
aVmphongwe
p5687
aVpafunika
p5688
aVeasy
p5689
aVpas
p5690
aVdead
p5691
aVpaitana
p5692
aVackras
p5693
aVnyozan
p5694
aVguday
p5695
aVdaniel
p5696
aVkhumbo
p5697
aVesaya
p5698
aVerick
p5699
aVsowet0
p5700
aVsimakhala
p5701
aVamathesa
p5702
aVbenango
p5703
aVemployment
p5704
aVmwamsanga
p5705
aVikwele
p5706
aVkapare
p5707
aVici
p5708
aVzozittezera
p5709
aVnayife
p5710
aVwozidarira
p5711
aVwanga
p5712
aVpet
p5713
aVmaralia
p5714
aVpathupi
p5715
aVzithu
p5716
aVsiyichilisidwa
p5717
aVndamukane
p5718
aVmphomwa
p5719
aVsitenja
p5720
aVnadzantalema
p5721
aVpamoyo
p5722
aVkusalankhula
p5723
aVifa
p5724
aVsosten
p5725
aVrun
p5726
aVathu
p5727
aVbusiness
p5728
aVsoweto
p5729
aVisaac
p5730
aVmunga
p5731
aVmphondolo
p5732
aVkumpasala
p5733
aVnews
p5734
aVgilrs
p5735
aVvictoria
p5736
aVludanzi
p5737
aVbrighton
p5738
aVtimashoka
p5739
aVhumphreyzo
p5740
aVnjobvu
p5741
aVmackson
p5742
aVnimaopa
p5743
aVnditsiku
p5744
aVmerwe
p5745
aVpovat
p5746
aVmagazine
p5747
aVusowakonyamulira
p5748
aVzaka
p5749
aVlundazi
p5750
aVkhomba
p5751
aVchibale
p5752
aVkugawana
p5753
aVmvula
p5754
aVtikwatiliwa
p5755
aVchimakula
p5756
aVanyau
p5757
aVakakhalisapo
p5758
aVesau
p5759
aVchambawa
p5760
aVmaureen
p5761
aVmfuleni
p5762
aVndodo
p5763
aVimfa
p5764
aVtiriko
p5765
aVlokwima
p5766
aVcilungamo
p5767
aVmkawile
p5768
aVukwimi
p5769
aVvery
p5770
aVnkhoma
p5771
aVlamtundu
p5772
aVfemale
p5773
aVsteven
p5774
aVburton
p5775
aVchulu
p5776
aVzumwanda
p5777
aVyour
p5778
aVngosa
p5779
aVakalibe
p5780
aVmozambique
p5781
aVkukwatiwa
p5782
aVafuna
p5783
aVbaggs
p5784
aVliona
p5785
aVarea
p5786
aVmataidwe
p5787
aVninaciona
p5788
aVfast
p5789
aVwhy
p5790
aVchipeta
p5791
aVanderson
p5792
aVjoseph
p5793
aVakama
p5794
aVkucipatara
p5795
aVfeair
p5796
aVfer
p5797
aVhenry
p5798
aVmakwala
p5799
aVcabe
p5800
aVnchifukwa
p5801
aVkasangazi
p5802
aVlao
p5803
aVkalumanda
p5804
aVgort
p5805
aVmwamusanga
p5806
aVzagode
p5807
aVnyamphande
p5808
aVpamene
p5809
aVchimene
p5810
aVpaka
p5811
aVsucess
p5812
aVmagazi
p5813
aVrobert
p5814
aVmsg
p5815
aVnthawi
p5816
aVinachita
p5817
aVmchini
p5818
aVmafayo
p5819
aValakwisa
p5820
aVkukwatitsa
p5821
aVkuchipangali
p5822
aVopolesa
p5823
aVamachoka
p5824
aVpansi
p5825
aVubeleki
p5826
aVpangakhale
p5827
aVnilamulo
p5828
aVreuben
p5829
aVtasala
p5830
aVmada
p5831
aVamathandiza
p5832
aVluasila
p5833
aVchagwira
p5834
aVportpher
p5835
aVjumbe
p5836
aVmphamvu
p5837
aVdirty
p5838
aVchitule
p5839
aVbages
p5840
aVyakhwima
p5841
aVkunabvutika
p5842
aVmawanda
p5843
aVwina
p5844
aVmupata
p5845
aVimatua
p5846
aVfukwa
p5847
aVtigwilns
p5848
aVpandala
p5849
aVfelix
p5850
aVsaen
p5851
aVezekiel
p5852
aVkalito
p5853
aVzokomela
p5854
aVchigombe
p5855
aVeducated
p5856
aVmsimuko
p5857
aVkatundu
p5858
aVaids
p5859
aVmaiko
p5860
aVmbewe
p5861
aVtenga
p5862
aVeric
p5863
aVare
p5864
aVsugar
p5865
aVmeglina
p5866
aVsikavu
p5867
aVtari
p5868
aVpeter
p5869
aVphaniso
p5870
aVpre
p5871
aVcoutry
p5872
aVmankwala
p5873
aVkusiliza
p5874
aVmaleya
p5875
aVmthiransembe
p5876
aVamabvutika
p5877
aVfield
p5878
aVmisholo
p5879
aVchoyamba
p5880
aVquick
p5881
aVukhala
p5882
aVkills
p5883
aVsukhala
p5884
aVyou
p5885
aVyos
p5886
aVmunyukwa
p5887
aVzingathandize
p5888
aVmpezeni
p5889
aVkulowa
p5890
aVmonday
p5891
aValimon
p5892
aVcatheline
p5893
aVsteadman
p5894
aVpear
p5895
aVyalulani
p5896
aVbravado
p5897
aVyocepa
p5898
aVchance
p5899
aVchifi
p5900
aValaweko
p5901
aVchilowe
p5902
aVchris
p5903
aVraydol
p5904
aVkufikila
p5905
aVbcoz
p5906
aVcamala
p5907
aVkukwatilisa
p5908
aVland
p5909
aVchingakhale
p5910
aVassets
p5911
aVhome
p5912
aVcnda
p5913
aVmudziko
p5914
aVmayana
p5915
aVrule
p5916
aVtezhi
p5917
aVmwandafisi
p5918
aVcouse
p5919
aVamgaole
p5920
aVnelson
p5921
aVmngelezi
p5922
aVzambri
p5923
aVyaubereki
p5924
aVagnes
p5925
aVcpt
p5926
aVwaanthu
p5927
aVkamatete
p5928
aVwamung
p5929
atp5930
Rp5931
sVChichewa
p5932
g2
((lp5933
Vblackson
p5934
aVkatimbira
p5935
aVtheyala
p5936
aVchipadela
p5937
aVmphika
p5938
aVmabvuto
p5939
aVuchebe
p5940
aVmwa
p5941
aVmseche
p5942
aVzilibwino
p5943
aVmatekenya
p5944
aVchawantha
p5945
aVsinoya
p5946
aVpamwambazi
p5947
aVidrisa
p5948
aVmabanja
p5949
aVschool
p5950
aVchikaiko
p5951
aVkambale
p5952
aVenock
p5953
aVwillam
p5954
aVlivasoni
p5955
aVaphunzitsi
p5956
aVkum
p5957
aVpetro
p5958
aVndine
p5959
aVpolandira
p5960
aVnew
p5961
aVnet
p5962
aVndiedzi
p5963
aVazindikira
p5964
aVeunice
p5965
aVmamkhwala
p5966
aVnyimbo
p5967
aVedzi
p5968
aVasokoneze
p5969
aVmtenthera
p5970
aVfumbi
p5971
aVkulemba
p5972
aVake
p5973
aVnzokwana
p5974
aVamaphunzira
p5975
aVsukutha
p5976
aVafunika
p5977
aVchifuk
p5978
aVnjezela
p5979
aVamaiwo
p5980
aVgilime
p5981
aVamaiwa
p5982
aVthale1
p5983
aVchfukwa
p5984
aVstrike
p5985
aVadzakhala
p5986
aVndalama
p5987
aVmulakho
p5988
aVchikayi
p5989
aVnkk
p5990
aVakadatan
p5991
aVchifukwamumup
p5992
aVmtenje
p5993
aVerv
p5994
aVidakalibe
p5995
aVmwansambo
p5996
aVmohara
p5997
aVzabanja
p5998
aVhanifa
p5999
aVwang
p6000
aVgive
p6001
aVmankhala
p6002
aVamayitenga
p6003
aVsipofuni
p6004
aVena
p6005
aVkumchinji
p6006
aVsamaliza
p6007
aVloterolo
p6008
aVnyodo
p6009
aVchidule
p6010
aValetsedwe
p6011
aVndikumvomeleza
p6012
aVchibwe
p6013
aVkusuku
p6014
aVamayi
p6015
aVokha
p6016
aVposaganizira
p6017
aVtsono
p6018
aVpomwe
p6019
aVwina
p6020
aVapse
p6021
aVoffice
p6022
aVtiwana
p6023
aVkuwopa
p6024
aVkupanga
p6025
aVchinthu
p6026
aVbefore
p6027
aVlabisoni
p6028
aVchiwayo
p6029
aVapilile
p6030
aVamapha
p6031
aVnthawi
p6032
aVakoze
p6033
aVkapiri
p6034
aVmkumulakwira
p6035
aVkorambwe
p6036
aVkuchandulu
p6037
aVthey
p6038
aVnkoyenera
p6039
aVkachingwe
p6040
aVchirwa
p6041
aVinendaziwonakunokwanamarambanikuti
p6042
aVchombo
p6043
aValex
p6044
aVninnie
p6045
aVyochepa
p6046
aVnkhomphola
p6047
aVluck
p6048
aVdevelopment
p6049
aVmalangizo
p6050
aVallan
p6051
aVkamobzi
p6052
aVtrading
p6053
aVaids
p6054
aVukwatitsa
p6055
aVchiwelewele
p6056
aVotengela
p6057
aVsms
p6058
aVgeorge
p6059
aVmanda
p6060
aVumphawi
p6061
aVmalinga
p6062
aVstandard
p6063
aVkasambeni
p6064
aVanga
p6065
aVkugwira
p6066
aVotele
p6067
aVndizokwanila
p6068
aVyobereka
p6069
aVosati
p6070
aVkolimunga
p6071
aVfupa
p6072
aVprimary
p6073
aValipo
p6074
aVkupha
p6075
aVphelantuni
p6076
aVndizambiri
p6077
aVreuben
p6078
aVkuchoke
p6079
aVtoo
p6080
aVyoitenga
p6081
aVakudalitseni
p6082
aVmalonda
p6083
aVothamangira
p6084
aVsamawola
p6085
aVasamakhare
p6086
aVyoopsa
p6087
aVziri
p6088
aVluwisi
p6089
aVmozambiki
p6090
aVsolomon
p6091
aVowaphula
p6092
aVmkoko
p6093
aVchake
p6094
aVkingkukastom
p6095
aVzosezizimapha
p6096
aVapezeso
p6097
aVasapite
p6098
aVkayo
p6099
aVvge
p6100
aVzakwana
p6101
aVmajumbo
p6102
aVsangakwanitse
p6103
aVpemba
p6104
aVathakukupha
p6105
aVtym
p6106
aVazithandizira
p6107
aVkondwelani
p6108
aVcentres
p6109
aVchamlandu
p6110
aVndikuzindikira
p6111
aVakwatiwe
p6112
aVmaria
p6113
aVziribwino
p6114
aVsyrubus
p6115
aVangosiya
p6116
aVkalimu
p6117
aVakutha
p6118
aVvoting
p6119
aVakumawatuma
p6120
aVakaona
p6121
aVboma
p6122
aVikagwira
p6123
aVwachita
p6124
aVpachifukwa
p6125
aVamenewo
p6126
aVapitilizemaphuzilo
p6127
aVamenewa
p6128
aVpakuti
p6129
aVakuwonetsakuti
p6130
aVndikumuphwan
p6131
aVtsani
p6132
aVchristopher
p6133
aVnikwasakadziko
p6134
aVndikuti
p6135
aVndiyoopsa
p6136
aVyayitali
p6137
aVbay
p6138
aVamadzavutika
p6139
aVbag
p6140
aVban
p6141
aVautomatic
p6142
aVzosezo
p6143
aVchipatala
p6144
aVadzilemba
p6145
aVakewo
p6146
aViri
p6147
aVloti
p6148
aVkumudzi
p6149
aVchomwe
p6150
aVkufa
p6151
aVmaleliya
p6152
aVtermz
p6153
aVkuchizika
p6154
aVapabajapo
p6155
aVazao
p6156
aVnews
p6157
aVreceived
p6158
aVmakolo
p6159
aVili
p6160
aVsadatiakathetsa
p6161
aVkalambule
p6162
aVsionse
p6163
aVkwa
p6164
aVmsampha
p6165
aVzaten
p6166
aVangel
p6167
aVndikukwatiwisa
p6168
aVfrm
p6169
aVchalewa
p6170
aVbingu
p6171
aVpovuta
p6172
aVnayo
p6173
aVchimphanje
p6174
aVnkhaza
p6175
aVchiutsi
p6176
aVmasilabasi
p6177
aVkwamawonga
p6178
aVmalungonso
p6179
aVubongo
p6180
aVchild
p6181
aVkuchipata
p6182
aVkuchepa
p6183
aVpakamwendo
p6184
aVatakhwima
p6185
aVasaleke
p6186
aVnowa
p6187
aVazikhalabe
p6188
aVvuto
p6189
aVmzoyenera
p6190
aVopalechoni
p6191
aVlamwanayo
p6192
aVnipabwino
p6193
aVkalembeni
p6194
aVsikubweza
p6195
aVsainet
p6196
aVamapanga
p6197
aVkwalobat
p6198
aVawiri
p6199
aVjiya
p6200
aVpangozi
p6201
aVkamanga
p6202
aVnibwino
p6203
aVndikuwonla
p6204
aVkulimbikira
p6205
aVnyasulu
p6206
aVthi
p6207
aVchinkhaka
p6208
aVthe
p6209
aVkale
p6210
aVasinthe
p6211
aVyes
p6212
aVonse
p6213
aVheraufulu
p6214
aVndikuwo
p6215
aVmsanga
p6216
aVbetiasi
p6217
aVanyi
p6218
aVhas
p6219
aVosman
p6220
aVmayi
p6221
aVmwachangu
p6222
aVtembwe
p6223
aVmtalimanja
p6224
aVbanda
p6225
aVlezani
p6226
aValick
p6227
aVgift
p6228
aVkusinthasintha
p6229
aVkumalowa
p6230
aVpalibe
p6231
aVyowopsa
p6232
aVold
p6233
aVolo
p6234
aVborn
p6235
aVganizani
p6236
aVkukhala
p6237
aVkufika
p6238
aVasasiye
p6239
aVfor
p6240
aVzotele
p6241
aVdickison
p6242
aVwanyura
p6243
aVadziko
p6244
aVoyembekezera
p6245
aVzilbah
p6246
aVsarah
p6247
aVkambakakuti
p6248
aVambiri
p6249
aVzosiyana
p6250
aVeliya
p6251
aVyachina
p6252
aV8yrs
p6253
aVzokudya
p6254
aVmthupi
p6255
aVhospital
p6256
aVdyson
p6257
aVsergio
p6258
aVineyo
p6259
aVmwachumu
p6260
aVezara
p6261
aVchima
p6262
aVliwaladzi
p6263
aVdowa
p6264
aVchikhasu
p6265
aVwan
p6266
aVwam
p6267
aVmafupa
p6268
aVchidzuma
p6269
aVscondar
p6270
aVjoseph
p6271
aVjane
p6272
aVjana
p6273
aVkadongola
p6274
aVmpama
p6275
aVndondomeko
p6276
aVback
p6277
aVukwatiwitsa
p6278
aVwonjezani
p6279
aVadziotche
p6280
aVapitilize
p6281
aVkukochirila
p6282
aVzokwanira
p6283
aVazigulitsaso
p6284
aVamkhala
p6285
aVtitakalamba
p6286
aVasakwakwatiwe
p6287
aVndikupereka
p6288
aVzikuchulutsa
p6289
aVzabwino
p6290
aVkusintha
p6291
aVmlandu
p6292
aVrimbiri
p6293
aVndiyopsa
p6294
aVkuonjezela
p6295
aVsibwinokukwatiwa
p6296
aVchilango
p6297
aVzikomo
p6298
aVumakhala
p6299
aVnthema
p6300
aVakatentha
p6301
aVfather
p6302
aVmwatsoka
p6303
aVhellen
p6304
aVmunkhuti
p6305
aVkuonga
p6306
aVmdiye
p6307
aVamasenza
p6308
aVmaness
p6309
aVmazinga
p6310
aVdim
p6311
aVudzudzu
p6312
aVmatola
p6313
aVteam
p6314
aVakuyenera
p6315
aVnzosiyilana
p6316
aVbola
p6317
aVuchepeko
p6318
aVkauma
p6319
aVatsogoleri
p6320
aVkwamveka
p6321
aVweniweni
p6322
aVmizeck
p6323
aVnyirenda
p6324
aVyomwe
p6325
aVfear
p6326
aVkumikundi
p6327
aVdalitso
p6328
aVgladys
p6329
aVndikumwalira
p6330
aValoni
p6331
aVkuthandiza
p6332
aVaphunzire
p6333
aVmulebo
p6334
aVsylabus
p6335
aVomulipila
p6336
aVtizipatsana
p6337
aVndizachimidzi
p6338
aVmaufulu
p6339
aVsiutha
p6340
aVnyomgan
p6341
aVamathandiza
p6342
aVambikli
p6343
aVayi
p6344
aVakathandize
p6345
aVaye
p6346
aVakhoza
p6347
aVuphela
p6348
aVntchisi
p6349
aVamachizika
p6350
aVakumva
p6351
aVzinthu
p6352
aVzaidi
p6353
aVayenela
p6354
aVmareriya
p6355
aVyakale
p6356
aVchazama
p6357
aViwowo
p6358
aVuli
p6359
aVpampawo
p6360
aVayiii
p6361
aVakwati
p6362
aVumabwala
p6363
aVndinkhondo
p6364
aVmcford
p6365
aVlowala
p6366
aVchikho
p6367
aVukaitenga
p6368
aVadzawathandize
p6369
aVpopeza
p6370
aVkusiya
p6371
aVinekoma
p6372
aVakakw
p6373
aVfatsani
p6374
aVwalomwe
p6375
aVmkazi
p6376
aVmai
p6377
aVman
p6378
aVndipo
p6379
aVnthanje
p6380
aVayambe
p6381
aVmtengabvumba
p6382
aVmatutu
p6383
aVbeliam
p6384
aVsumatha
p6385
aVkalanje
p6386
aValetse
p6387
aVzimenez
p6388
aVamalonjeza
p6389
aVutana
p6390
aVyears
p6391
aVmwayi
p6392
aVsavimbi
p6393
aVkafeleni
p6394
aViiii
p6395
aV16ryz
p6396
aVadzathandiza
p6397
aVmaik
p6398
aVwasakwatile
p6399
aVkasakula
p6400
aVmwake
p6401
aVbwino
p6402
aVkaiton
p6403
aVcholemela
p6404
aVmoyenela
p6405
aVnot
p6406
aVkuremera
p6407
aVmphanga
p6408
aVterm
p6409
aVnkhani
p6410
aVkomanso
p6411
aVjames
p6412
aVkwakapanga
p6413
aVmwanaangatani
p6414
aVkankhomba
p6415
aVmpofunika
p6416
aVpayekha
p6417
aVangadzakwatiwenaye
p6418
aV10485760
p6419
aVngati
p6420
aVchivuta
p6421
aVmmalawi
p6422
aVakanawathandiza
p6423
aVmamuna
p6424
aVzofuna
p6425
aVsadya
p6426
aVkhima
p6427
aVinternet
p6428
aVimavuta
p6429
aVndikusinthasintha
p6430
aVyosefe
p6431
aVwapeza
p6432
aVono
p6433
aVnyirongo
p6434
aVvoti
p6435
aVvote
p6436
aVstaniel
p6437
aViam
p6438
aVcity
p6439
aVndibwino
p6440
aVplastic
p6441
aValfred
p6442
aVmalisen
p6443
aVshawa
p6444
aVnidenja
p6445
aVndiopsa
p6446
aVkupewa
p6447
aVatalumidwa
p6448
aVnamoni
p6449
aVfuture
p6450
aVndereya
p6451
aVmkhota
p6452
aVamasikwano
p6453
aVand
p6454
aVana
p6455
aVzili
p6456
aVano
p6457
aVmatem
p6458
aVasakwatire
p6459
aVallen
p6460
aVnazi
p6461
aValesedwe
p6462
aVamayiwakewo
p6463
aVopsa
p6464
aVkuntchis
p6465
aVlovemore
p6466
aVamadziwazambili
p6467
aViwo
p6468
aVasakwatile
p6469
aValinawo
p6470
aVbeta
p6471
aVamayiwo
p6472
aVadilo
p6473
aVonjezera
p6474
aVmalugoniyowo
p6475
aVmrs
p6476
aVkalimila
p6477
aVntchito
p6478
aValiyese
p6479
aVshop
p6480
aVakuwaonawo
p6481
aVkawiri
p6482
aVlimaswa
p6483
aVbright
p6484
aVakhala
p6485
aVakhale
p6486
aVrobt
p6487
aVakonze
p6488
aVmaphuzilo
p6489
aVaphuzile
p6490
aVkusukuluko
p6491
aVonly
p6492
aVchiye
p6493
aVmuno
p6494
aVget
p6495
aVsamuel
p6496
aVkamwendo
p6497
aVsecondary
p6498
aVumbuli
p6499
aVahmad
p6500
aVsichitsika
p6501
aVkanthiti
p6502
aVchipumi
p6503
aVrabson
p6504
aVmngwangwa
p6505
aVeyeyo
p6506
aVasawatile
p6507
aVlne
p6508
aVuthe
p6509
aVthandizo
p6510
aVmwina
p6511
aVlumwira
p6512
aVenough
p6513
aVkusukulu
p6514
aVmfumu
p6515
aVsukulu
p6516
aVosamatelo
p6517
aVsiyana
p6518
aVnkho
p6519
aVkawili
p6520
aVsakudziw
p6521
aVkabuwe
p6522
aVamachitamanyazi
p6523
aVamong
p6524
aVkwaka
p6525
aVanthu
p6526
aVmakolowo
p6527
aVamoni
p6528
aVmtasaka
p6529
aVtikusowa
p6530
aVabdul
p6531
aVyila
p6532
aVsicho
p6533
aVnotgood
p6534
aVmanebal
p6535
aVwamasulidwa
p6536
aVsizigwirazana
p6537
aVgombe
p6538
aVwaku
p6539
aVwake
p6540
aVambuye
p6541
aVchikulumba
p6542
aVsafiana
p6543
aVamene
p6544
aVupita
p6545
aVndizakuthandizani
p6546
aVshida
p6547
aVndiyopanda
p6548
aVmulekeni
p6549
aVchilengedwe
p6550
aVkomasokamwedwekamankwala
p6551
aVcifukwa
p6552
aVndichakuti
p6553
aVkwamsakad
p6554
aVlevison
p6555
aVakamata
p6556
aVpau
p6557
aVarice
p6558
aVedwin
p6559
aVdasitani
p6560
aVmwanawamng
p6561
aVliti
p6562
aVangatailire
p6563
aVwawukulu
p6564
aVenandiena
p6565
aVelina
p6566
aVmankha
p6567
aVwekha
p6568
aVchifundo
p6569
aVmkuchepako
p6570
aVyesaya
p6571
aVmavuto
p6572
aVkenamu
p6573
aVzonse
p6574
aVumenewu
p6575
aVzakazo
p6576
aVlyson
p6577
aVdickson
p6578
aVnoah
p6579
aVzifukwa
p6580
aVkuononga
p6581
aVjuwax
p6582
aVdeath
p6583
aValiwachipere
p6584
aVosaumiza
p6585
aVchakuti
p6586
aVrose
p6587
aVpatsogolo
p6588
aVmgubo
p6589
aVakaphunzira
p6590
aVndamene
p6591
aVzulu
p6592
aVama
p6593
aVkochepa
p6594
aVpsa
p6595
aVmuotcha
p6596
aVyelymiya
p6597
aVkunokwa
p6598
aVndioopsa
p6599
aVchididi
p6600
aVchristina
p6601
aVmararia
p6602
aVpatrick
p6603
aVcollective
p6604
aVudindo
p6605
aVkuli
p6606
aVzaumoyo
p6607
aVnthondo
p6608
aVesaya
p6609
aVzipangizo
p6610
aVakwatira
p6611
aVkwacha
p6612
aVakwatire
p6613
aVaziima
p6614
aVkwachi
p6615
aVngakhale
p6616
aVndakana
p6617
aVkawamba
p6618
aVbusiness
p6619
aVkugula
p6620
aVkasungu
p6621
aVfrancis
p6622
aVzaku
p6623
aVonop
p6624
aVvubwi
p6625
aVfeir
p6626
aVzake
p6627
aVtepa
p6628
aVzaka
p6629
aVkaulimbo
p6630
aVphiri
p6631
aVnyoni
p6632
aVndbwino
p6633
aVkalokwe
p6634
aVintervention
p6635
aVnyongani
p6636
aVher
p6637
aVintellengence
p6638
aVtambala
p6639
aVlilogwe
p6640
aVmosavuta
p6641
aVpabanja
p6642
aVofmaleria
p6643
aVchibwana
p6644
aVilipoyi
p6645
aVmkanthawi
p6646
aVzikuchuluka
p6647
aVwith
p6648
aVwiti
p6649
aVshumbanana
p6650
aVjonas
p6651
aVsanthe
p6652
aVzose
p6653
aVagree
p6654
aVyachiwiri
p6655
aVzokonda
p6656
aVzophunzitsira
p6657
aVgumba
p6658
aVgeneral
p6659
aVamathakutmagazia
p6660
aVsizinakhwime
p6661
aVsudziwika
p6662
aVmofulumira
p6663
aVkamende
p6664
aVyou
p6665
aVtimve
p6666
aVmeke
p6667
aVlamawa
p6668
aVkanyama
p6669
aVchilowa
p6670
aVkingsley
p6671
aVkuchipatala
p6672
aVatakhalanso
p6673
aVmumango
p6674
aVmasa
p6675
aVkulilongwe
p6676
aVangatani
p6677
aVchabe
p6678
aVlamakolo
p6679
aVsince
p6680
aVsch
p6681
aVali
p6682
aVasaletsedwe
p6683
aVnanga
p6684
aVasakwatiwa
p6685
aVmonjezi
p6686
aVndinda
p6687
aVmisale
p6688
aVsibwino
p6689
aVdisimasi
p6690
aVesther
p6691
aVmzuzu
p6692
aVkaponya
p6693
aVkasto
p6694
aVmzowopswa
p6695
aVimodzi
p6696
aVmzuzi
p6697
aVdictatorship
p6698
aVlouis
p6699
aVwawukholo
p6700
aV1akakhalitsa
p6701
aVsand
p6702
aVharry
p6703
aVsmall
p6704
aVanao
p6705
aVkonda
p6706
aVkumudulila
p6707
aVzero
p6708
aVmayeso
p6709
aVazikhalako
p6710
aVmwanao
p6711
aVchipangula
p6712
aVadikile
p6713
aVozon
p6714
aVmaleriya
p6715
aV2upatsana
p6716
aVmalaria
p6717
aVkwambiri
p6718
aVsimayankho
p6719
aVmareria
p6720
aVmalaliya
p6721
aVsuthawa
p6722
aVoyenerera
p6723
aVjamson
p6724
aVabale
p6725
aVkumalizitsa
p6726
aVeya
p6727
aVakafike
p6728
aVakafika
p6729
aVsalola
p6730
aVtwo
p6731
aVsangachitire
p6732
aVayiasakwatiwe
p6733
aVstambuli
p6734
aVmore
p6735
aVkoma
p6736
aVthengo
p6737
aVkwasandulizen
p6738
aVadzipiliza
p6739
aVsintha
p6740
aVfiar
p6741
aVletala
p6742
aVkubweleza
p6743
aVsimbino
p6744
aVtiziona
p6745
aVmalo
p6746
aVvyovyo
p6747
aVzimaonga
p6748
aVsitandade
p6749
aVkuyamba
p6750
aVkwachimtanda
p6751
aVpatison
p6752
aVrather
p6753
aVazilandila
p6754
aVukawalala
p6755
aVukwatiwa
p6756
aVmaphuziro
p6757
aVkatangale
p6758
aVakupeza
p6759
aVwasakwatiwe
p6760
aVlivimb
p6761
aVwambi
p6762
aVkamwana
p6763
aVdziko
p6764
aVkumayadi
p6765
aVmalitino
p6766
aVamakonda
p6767
aVsteria
p6768
aVlokamiza
p6769
aVlozi
p6770
aVutha
p6771
aVomwa
p6772
aVakakamizidwe
p6773
aVliri
p6774
aVpena
p6775
aVsizokwanila
p6776
aVgood
p6777
aVkuwalimbikitsa
p6778
aVlaisi
p6779
aVkutelo
p6780
aVbabilas
p6781
aVbless
p6782
aVife
p6783
aVubwinowasukulu
p6784
aVkumalawiko
p6785
aVligwire
p6786
aVimatenga
p6787
aVmadalitso
p6788
aVtsogoro
p6789
aVakaphuzila
p6790
aVchateka
p6791
aVufulu
p6792
aVbenda
p6793
aVwachichepele
p6794
aVatazolowera
p6795
aVndimuthandiza
p6796
aVkanyindula
p6797
aVizi
p6798
aVrobert
p6799
aVasakwatiwe
p6800
aVizo
p6801
aVtsikana
p6802
aVzambiri
p6803
aVchifu
p6804
aVpakufunika
p6805
aVsamatha
p6806
aVkukwatiwitsa
p6807
aVbasi
p6808
aVwanawazaka
p6809
aVndizina
p6810
aVchibothera
p6811
aVmkofunika
p6812
aVazawo
p6813
aVasiye
p6814
aVayenera
p6815
aVsipoyenela
p6816
aVnindi
p6817
aVayi0
p6818
aValongosole
p6819
aVkomaso
p6820
aVmusah
p6821
aVesawo
p6822
aVnkhumba
p6823
aVfrywell
p6824
aVmanyengo
p6825
aVzikwama
p6826
aVmaleria
p6827
aVkausen
p6828
aVkod
p6829
aVndikwokwanirandine
p6830
aVamakol
p6831
aVnthondowa
p6832
aVakaphuzira
p6833
aVellina
p6834
aVrawo
p6835
aVstd
p6836
aVakuthandizilaso
p6837
aVkadango
p6838
aVbaki
p6839
aVasanapite
p6840
aVitheke
p6841
aVasanakhwime
p6842
aVakuopsa
p6843
aVjamison
p6844
aVapitirize
p6845
aVungu
p6846
aVakaphunzila
p6847
aVtikufuna
p6848
aVbanja
p6849
aVkwamzikuola
p6850
aVhaward
p6851
aVkae
p6852
aVndioopsya
p6853
aVkangwere
p6854
aVeayala
p6855
aVchizewo
p6856
aVmkalasi
p6857
aVkas
p6858
aVyoyamba
p6859
aVkay
p6860
aVtsogolo
p6861
aVthundu
p6862
aVmarungu
p6863
aVmervi
p6864
aVwerengan
p6865
aVmarungo
p6866
aVanawo
p6867
aVmunthu
p6868
aVsakupha
p6869
aVamatha
p6870
aVagawa
p6871
aVmathiass
p6872
aVmoses
p6873
aVmankhwala
p6874
aVnikokwana
p6875
aVmalomo
p6876
aVkomakupewa
p6877
aVguileme
p6878
aVhiv
p6879
aVwavuta
p6880
aVzambia
p6881
aVluka
p6882
aVkayembe
p6883
aVbytes
p6884
aVadziwe
p6885
aVchibowa
p6886
aVndimatha
p6887
aVarv
p6888
aVkudzawathandiza
p6889
aVutsata
p6890
aVare
p6891
aVchikondi
p6892
aVntawi
p6893
aVatadziwa
p6894
aVamazolowela
p6895
aVsonifala
p6896
aVndiedz
p6897
aVtamakoswe
p6898
aVkokha
p6899
aVkhungwa
p6900
aVxool
p6901
aVkhumbo
p6902
aVlem
p6903
aVmpaka
p6904
aVchisati
p6905
aVboth
p6906
aVthomani
p6907
aVnzindo
p6908
aVkupitiriza
p6909
aVmcdonald
p6910
aVkwapinda
p6911
aVkupita
p6912
aVchikwa
p6913
aVchichitike
p6914
aVakumamfa
p6915
aVkachikoti
p6916
aVlake
p6917
aVmwana
p6918
aVvillage
p6919
aVatatsekuka
p6920
aVkaphala
p6921
aVakaphunzir
p6922
aVakuvuta
p6923
aVwankaziyo
p6924
aVchifukwa
p6925
aVamacizika
p6926
aVkathu
p6927
aVndiye
p6928
aVbenga
p6929
aVmoreen
p6930
aVndiyo
p6931
aVsakadziko
p6932
aVtizitaya
p6933
aVmatandizo
p6934
aVkasengwa
p6935
aVinewatisoni
p6936
aVdominic
p6937
aVlenard
p6938
aVmalamulo
p6939
aVmoto
p6940
aVosatengapo
p6941
aVkufakumene
p6942
aVkumeneko
p6943
aVkwam
p6944
aVviiiage
p6945
aVshad
p6946
aVmaida
p6947
aVumphawiwo
p6948
aVndawambi
p6949
aVmasukulu
p6950
aVtilimo
p6951
aVearly
p6952
aVmaramura
p6953
aVadzayamba
p6954
aVkwalilanji
p6955
aVchawala
p6956
aVnamitete
p6957
aVakanakhala
p6958
aVakadzaphuzira
p6959
aVkusiyana
p6960
aVlomwe
p6961
aValibe
p6962
aVkuthesa
p6963
aVmpofuni
p6964
aVmlonyeni
p6965
aVukhoza
p6966
aVzituko
p6967
aVamaposa
p6968
aVprince
p6969
aVamakula
p6970
aValso
p6971
aVlamulo
p6972
aVmavu
p6973
aVndioos
p6974
aVbig
p6975
aVgama
p6976
aVndiyabwino
p6977
aVazasamalidwa
p6978
aVsemu
p6979
aVakumulakwila
p6980
aVyolonimo
p6981
aVmbuna
p6982
aVachance
p6983
aVprevantable
p6984
aVpali
p6985
aVpamawa
p6986
aVmwanayo
p6987
aVkuno
p6988
aVwasili
p6989
aVjoefrey
p6990
aVrun
p6991
aVgome
p6992
aVufe
p6993
aVndithu
p6994
aVfrom
p6995
aVibwelerenso
p6996
aVjnz
p6997
aVsikutha
p6998
aVkupeza
p6999
aVpochita
p7000
aVmoyowakeso
p7001
aVjimmy
p7002
aVimfa
p7003
aVmzandu
p7004
aVyelemiya
p7005
aVwamuna
p7006
aVamfumu
p7007
aVpamenepo
p7008
aVcustom
p7009
aVchipsinjo
p7010
aVsyllabus
p7011
aVakuononga
p7012
aVlino
p7013
aVziko
p7014
aVukwati
p7015
aVjaulo
p7016
aVokulilapo
p7017
aVmalire
p7018
aVerick
p7019
aVsekelan
p7020
aVskulu
p7021
aVsamavuto
p7022
aVchan
p7023
aVsibwno
p7024
aVlimeneri
p7025
aVmazawa
p7026
aVanzake
p7027
aVchikhalire
p7028
aVyanga
p7029
aVmwadala
p7030
aVlucie
p7031
aVproblems
p7032
aVgomera
p7033
aVpottery
p7034
aVkadombe
p7035
aVlanu
p7036
aVnkhata
p7037
aVazilamula
p7038
aVamisi
p7039
aVchiyabwe
p7040
aVessau
p7041
aVedziumadya
p7042
aVeds
p7043
aVmbusa
p7044
aVakumaliza
p7045
aVkalekale
p7046
aVothetsela
p7047
aVchitukuko
p7048
aVatiwamavuto
p7049
aVsikuthetsa
p7050
aVassan
p7051
aVsalima
p7052
aVmatawale
p7053
aVtizitayila
p7054
aVzakazaka
p7055
aVkwakumkwala
p7056
aVzisanu
p7057
aVoopsa
p7058
aVmalalei
p7059
aVamabwela
p7060
aVthandiwe
p7061
aVjuma
p7062
aVmayadi
p7063
aVmwadaladala
p7064
aVapange
p7065
aVelisa
p7066
aVndikoyenela
p7067
aVkathyuka
p7068
aVchitipwa
p7069
aVkuchokela
p7070
aVmmalo
p7071
aVmtsindo
p7072
aVndizokwana
p7073
aVsaudziwa
p7074
aVkuchokera
p7075
aVcise
p7076
aVzidzawathandiza
p7077
aVhamees
p7078
aVothers
p7079
aVchipata
p7080
aVnazalene
p7081
aVonyamata
p7082
aVnzelu
p7083
aVmawa
p7084
aValomwe
p7085
aVmayard
p7086
aVmalepera
p7087
aVtongozala
p7088
aVakhazikitsidwe
p7089
aVmakhala
p7090
aVsanga
p7091
aVumavutitsa
p7092
aVmwasanga
p7093
aVzochuluka
p7094
aVnambuma
p7095
aVkochokera
p7096
aVubuli
p7097
aVkapili
p7098
aVkamasula
p7099
aVkuwonjezera
p7100
aVche
p7101
aVyochapidwa
p7102
aVyagwira
p7103
aVnthaka
p7104
aVukuchokela
p7105
aVmzofunika
p7106
aVmalawi
p7107
aVinfection
p7108
aVimafuna
p7109
aVndisilabasi
p7110
aVthis
p7111
aVgabriel
p7112
aVkwamalasa
p7113
aVlonjezo
p7114
aVpawl
p7115
aVkusitha
p7116
aVlabwino
p7117
aVmalundi
p7118
aVdzuka
p7119
aVabudukuno
p7120
aVkukwatiwit
p7121
aVhis
p7122
aVphirip
p7123
aVmwale
p7124
aVanzeru
p7125
aVsir
p7126
aVafa
p7127
aVokakamiza
p7128
aVafricano
p7129
aVazilamulira
p7130
aVwamamuna
p7131
aVkunokwampama
p7132
aVakozetsogolo
p7133
aVzokha
p7134
aValifosina
p7135
aVissa
p7136
aVmany
p7137
aVlines
p7138
aVchief
p7139
aVbuzness
p7140
aVchabwino
p7141
aVelia
p7142
aVamayamba
p7143
aVchilundu
p7144
aVndikupha
p7145
aVtiyamike
p7146
aVilibe
p7147
aVwawa
p7148
aVmutu
p7149
aVatsogoleli
p7150
aVwapezeka
p7151
aVhandwel
p7152
aVchongo
p7153
aVmusaletse
p7154
aVkuschool
p7155
aVakadziotche
p7156
aVozindikara
p7157
aVmasiku
p7158
aVchingolo
p7159
aVzomwe
p7160
aVamangopangitsakuti
p7161
aVkuopa
p7162
aVakule
p7163
aVmtekateka
p7164
aVndima
p7165
aVuniversity
p7166
aVfiya
p7167
aVangatigwire
p7168
aVpoyenerangatiaruyendetsabwinodzikoro
p7169
aVkazip
p7170
aVkafodyah
p7171
aVedzindiyovuta
p7172
aVlupiya
p7173
aVmaphunziro
p7174
aVamadziwa
p7175
aVbuma
p7176
aVameneyo
p7177
aVkukwatilitsa
p7178
aVkapalamula
p7179
aVamajaila
p7180
aVineofewa
p7181
aVarindichangu
p7182
aVmponda
p7183
aVayeseko
p7184
aVmbingwa
p7185
aVkuntchisi
p7186
aVkudwaritsa
p7187
aVkuphunzira
p7188
aVnditsogolo
p7189
aVdavid
p7190
aVludzi
p7191
aVumatha
p7192
aVhence
p7193
aVufiti
p7194
aVkugona
p7195
aVnsakambewa
p7196
aVmwenda
p7197
aVmtsogoro
p7198
aVasanakayambe
p7199
aVndiopunduka
p7200
aVmchinji
p7201
aVyine
p7202
aVnyathi
p7203
aVplastico
p7204
aVkadziotche
p7205
aVowopsya
p7206
aVpoti
p7207
aVmasawu
p7208
aVsekondale
p7209
aVmpata
p7210
aVkukapili
p7211
aVsilabasi
p7212
aVsazadzidya
p7213
aVkabudula
p7214
aVunicky
p7215
aVkunambuma
p7216
aVpamene
p7217
aVremember
p7218
aVkukhalanayo
p7219
aVbeg
p7220
aVamafa
p7221
aVbumphula
p7222
aVndimalungo
p7223
aVsec
p7224
aVmponela
p7225
aVredson
p7226
aVkuti
p7227
aVhave
p7228
aVwatulukira
p7229
aVneed
p7230
aVkute
p7231
aVborder
p7232
aVpatuma
p7233
aVungwe
p7234
aVzawo
p7235
aVngono
p7236
aVisaki
p7237
aVkatenje
p7238
aVndikumuphela
p7239
aVmdziko
p7240
aVlinda
p7241
aV4lo
p7242
aVaziyankha
p7243
aVteremu
p7244
aVcentre
p7245
aVinejazeni
p7246
aVazilemba
p7247
aVadzayima
p7248
aVawo
p7249
aVeight
p7250
aVinde
p7251
aVkulozi
p7252
aVbrenda
p7253
aVwoti
p7254
aVperlas
p7255
aVkupulayimale
p7256
aVbrino
p7257
aVkatatu
p7258
aVknowledge
p7259
aVjay
p7260
aVmatenda
p7261
aVzitakha
p7262
aVmalamuro
p7263
aVshould
p7264
aViyiasakwatiwe
p7265
aVkumukakamiza
p7266
aVavad
p7267
aVelitayekhayo
p7268
aVopeza
p7269
aValekereni
p7270
aVmalungo
p7271
aVpulayimale
p7272
aVkumuphela
p7273
aVkawiya
p7274
aVchanika
p7275
aViyambileso
p7276
aVndimumphela
p7277
aVnyaza
p7278
aVkuima
p7279
aVshd
p7280
aVndikumuphera
p7281
aVakadali
p7282
aVkapena
p7283
aVamatayirira
p7284
aVzikutandira
p7285
aVzambili
p7286
aVcomputer
p7287
aVmtsikanayi
p7288
aVwawo
p7289
aVzikuwononga
p7290
aVwmana
p7291
aVbruno
p7292
aVzothandiza
p7293
aVolemba
p7294
aVmapeto
p7295
aVkusulu
p7296
aVnzokwanira
p7297
aVnpanvu
p7298
aVkunam
p7299
aVgondwe
p7300
aVjoe
p7301
aVkwanthema
p7302
aVchonde
p7303
aVlilongwe
p7304
aVkwamsaka
p7305
aVyalelo
p7306
aVamakhala
p7307
aVndikuwathandiza
p7308
aVmmene
p7309
aVsilvia
p7310
aVfelix
p7311
aVkwasan
p7312
aVbwabwa
p7313
aVmaxwel
p7314
aVboscor
p7315
aVtembo
p7316
aVmoyo
p7317
aVkungoku
p7318
aVnkhuku
p7319
aVwoopsa
p7320
aVkunsaru
p7321
aVyamakolo
p7322
aVpiloting
p7323
aVlayer
p7324
aVmaluwa
p7325
aVlumbani
p7326
aVzachuluka
p7327
aVvira
p7328
aVkondwani
p7329
aVangakhalenso
p7330
aVsikapitolo
p7331
aVkwachikho
p7332
aVchisamba
p7333
aVsalimba
p7334
aVsiotha
p7335
aVasakwitiwe
p7336
aVav1
p7337
aVav2
p7338
aVphili
p7339
aVfighting
p7340
aVmkokwanira
p7341
aVchasolo
p7342
aVkunokukasungu
p7343
aVpaul
p7344
aVmzake
p7345
aVamalowa
p7346
aVpatricia
p7347
aVkuletsa
p7348
aVusage
p7349
aVtaphuzitsa
p7350
aVfya
p7351
aVandso
p7352
aVmasanya
p7353
aVmaganizo
p7354
aVincreases
p7355
aVfalida
p7356
aVpresdent
p7357
aVatha
p7358
aVshephard
p7359
aVozone
p7360
aVaziyima
p7361
aVathu
p7362
aVjanuary
p7363
aVwilberforce
p7364
aVamadwala
p7365
aVchifukwatsongolorake
p7366
aVkuimanso
p7367
aVthokoza
p7368
aVkuchakudya
p7369
aVyandalama
p7370
aVwesly
p7371
aVshabani
p7372
aVyerymiya
p7373
aVavoid
p7374
aVketwell
p7375
aVzankhuli
p7376
aVlongwe
p7377
aVamafunanso
p7378
aVbelan
p7379
aVamavuto
p7380
aVkalasi
p7381
aVjangia
p7382
aVndi
p7383
aVpika
p7384
aVmangofuna
p7385
aVnde
p7386
aVchalera
p7387
aVblessings
p7388
aVmzokwana
p7389
aVchatepa
p7390
aVkukakamizidwa
p7391
aVowa
p7392
aVkholo
p7393
aVamava
p7394
aVkukwatiwa
p7395
aVtichepetse
p7396
aVamapeweka
p7397
aVlimafuni
p7398
aVmtosen
p7399
aVzosinthasintha
p7400
aVchinkhwiko
p7401
aVamavu
p7402
aVasanankhweme
p7403
aVdwino
p7404
aVthoko
p7405
aVkudowa
p7406
aVngatiwalephelawankulukuthet
p7407
aVakakhalathawi
p7408
aVbut
p7409
aVkamkwamba
p7410
aVlipatsidwe
p7411
aVwacisodzera
p7412
aVlevie
p7413
aVndale
p7414
aVkukasungu
p7415
aVsizaka
p7416
aVinu
p7417
aVamayio
p7418
aVamayii
p7419
aVsimaya
p7420
aVine
p7421
aVdzanja
p7422
aVeducation
p7423
aValindimankhwala
p7424
aVtailoring
p7425
aVadzadzidalire
p7426
aVlidzakhala
p7427
aVpalast
p7428
aVtchito
p7429
aVtithandize
p7430
aViyeyo
p7431
aVtsala
p7432
aVasinedy
p7433
aVnkosi
p7434
aVntanda
p7435
aVawonjezere
p7436
aVbcz
p7437
aVimani
p7438
aVbcs
p7439
atp7440
Rp7441
sVEnglish
p7442
g2
((lp7443
Vdrnkng
p7444
aVmny
p7445
aVbwalya
p7446
aVunavoidable
p7447
aVtodays
p7448
aVsch
p7449
aVcaused
p7450
aVmutilansembe
p7451
aVchild
p7452
aVshansha
p7453
aVtested
p7454
aVleads
p7455
aVesy
p7456
aVsurdenly
p7457
aVfollow
p7458
aVpepabags
p7459
aVfaster
p7460
aVchildren
p7461
aVcauses
p7462
aVtomorrows
p7463
aVmaseko
p7464
aVsimon
p7465
aVterms
p7466
aVyamasila
p7467
aVmiyoba
p7468
aVmabvuto
p7469
aVmusonda
p7470
aVyoung
p7471
aVenvironment
p7472
aVnkhoma
p7473
aVedward
p7474
aVhelps
p7475
aVunder
p7476
aVhealth
p7477
aVdangarous
p7478
aVnyoni
p7479
aVwoman
p7480
aVwilison
p7481
aVpple
p7482
aVamboga
p7483
aVvery
p7484
aVkendo
p7485
aVfocus
p7486
aVmedicine
p7487
aVevery
p7488
aVjack
p7489
aVfall
p7490
aVaffect
p7491
aVempty
p7492
aVnyore
p7493
aVschool
p7494
aVkeny
p7495
aVlevel
p7496
aVuncurable
p7497
aVlouis
p7498
aVmarry
p7499
aVgul
p7500
aVgotia
p7501
aVchilekati
p7502
aVmgubudu
p7503
aVcipana
p7504
aVthough
p7505
aVcronical
p7506
aVkonda
p7507
aVsani
p7508
aVkisumu
p7509
aVprevent
p7510
aVtek
p7511
aVlady
p7512
aVleaders
p7513
aVten
p7514
aVtired
p7515
aVmwanjawanthu
p7516
aVchipembe
p7517
aVamong
p7518
aVdiscover
p7519
aVmwasemphangwe
p7520
aVsayg
p7521
aVhope
p7522
aVbecovse
p7523
aVmedecen
p7524
aVfurther
p7525
aVnyirenda
p7526
aVdepression
p7527
aVvictor
p7528
aVeven
p7529
aVmariages
p7530
aVnyaguda
p7531
aVdeases
p7532
aVbusiness
p7533
aVrichard
p7534
aVilliness
p7535
aVsection
p7536
aVcontracted
p7537
aVmrkt
p7538
aVfavour
p7539
aVaccess
p7540
aVprodect
p7541
aVndine
p7542
aVabove
p7543
aVfrank
p7544
aVarvs
p7545
aVfalling
p7546
aVeverlasting
p7547
aV1010
p7548
aVsh0ud
p7549
aVbody
p7550
aVchisenjere
p7551
aV4rom
p7552
aVenviromnt
p7553
aVlitters
p7554
aVempower
p7555
aVloose
p7556
aVbecoz
p7557
aVmboya
p7558
aVwater
p7559
aVching
p7560
aVpoverty
p7561
aVgetrude
p7562
aVnyimba
p7563
aVchipata
p7564
aVtiserumo
p7565
aVmareria
p7566
aVirritating
p7567
aVkatete
p7568
aVacalling
p7569
aVboy
p7570
aVgashi
p7571
aVrsonel
p7572
aVreceive
p7573
aVreason
p7574
aVexperience
p7575
aVmosquito
p7576
aVmac
p7577
aVagatha
p7578
aVbording
p7579
aVadvantages
p7580
aVmnkhanya
p7581
aVchanges
p7582
aVdoris
p7583
aVjoshua
p7584
aVbiodegradable
p7585
aVkalino
p7586
aVuseful
p7587
aVsaitoti
p7588
aVfamily
p7589
aVveronica
p7590
aVpresidents
p7591
aVmanage
p7592
aVreliase
p7593
aVrchn
p7594
aVplance
p7595
aVngoma
p7596
aVmphomwa
p7597
aVsarah
p7598
aVuse
p7599
aVfrom
p7600
aVtakes
p7601
aVotis
p7602
aVhospital
p7603
aVthre
p7604
aVtwn
p7605
aVfinally
p7606
aVbicoz
p7607
aVdnt
p7608
aVlive
p7609
aVknowledge
p7610
aVcall
p7611
aVntchisi
p7612
aVmsg
p7613
aVgodfrey
p7614
aVsarat
p7615
aVuntil
p7616
aVtoday
p7617
aVelias
p7618
aVbringz
p7619
aVbecouse
p7620
aVchadiza
p7621
aVgotea
p7622
aVmalar
p7623
aVlemzmpongwe
p7624
aVevrydy
p7625
aVcarryng
p7626
aVlumdaz
p7627
aVaware
p7628
aVmosban
p7629
aVdesease
p7630
aVkakiri
p7631
aVaccept
p7632
aVbaby
p7633
aVlumezi
p7634
aVdemerits
p7635
aVmoses
p7636
aVdey
p7637
aVmiddle
p7638
aVthis
p7639
aVgabriel
p7640
aVwork
p7641
aVmariage
p7642
aVaperson
p7643
aVmalelia
p7644
aVmambo
p7645
aVabsten
p7646
aVgershom
p7647
aVcan
p7648
aVlearn
p7649
aVabandon
p7650
aVmale
p7651
aVvilage
p7652
aVnyambi0
p7653
aVmwaume
p7654
aVlangson
p7655
aVbeautiful
p7656
aVdaka
p7657
aVwant
p7658
aVgrace
p7659
aVgive
p7660
aVochilo
p7661
aVchip
p7662
aVdinho
p7663
aVone
p7664
aVsroly
p7665
aVhigh
p7666
aVclaimed
p7667
aVchanida
p7668
aVafta
p7669
aVsomething
p7670
aVcouncil
p7671
aVmzee
p7672
aVfadales
p7673
aVserial
p7674
aVmade
p7675
aVmwale
p7676
aVsakaka
p7677
aVgarden
p7678
aVstil
p7679
aVend
p7680
aVthing
p7681
aVprovide
p7682
aVspreads
p7683
aVrasta
p7684
aVdurng
p7685
aVayaki
p7686
aVimmune
p7687
aVlameck
p7688
aVkam
p7689
aVanswer
p7690
aVinstead
p7691
aVyagi
p7692
aVnya
p7693
aViribe
p7694
aVrepu
p7695
aVamake
p7696
aVeither
p7697
aVadis
p7698
aVmaternal
p7699
aVelizabeth
p7700
aVmay
p7701
aVstop
p7702
aVafter
p7703
aVspot
p7704
aVronald
p7705
aVhence
p7706
aVwrong
p7707
aVmkazi
p7708
aVblood
p7709
aVmag
p7710
aVjuve
p7711
aValovinala
p7712
aVchoice
p7713
aVman
p7714
aVprob
p7715
aVstress
p7716
aVshort
p7717
aVmaralia
p7718
aVmany
p7719
aVmature
p7720
aVeats
p7721
aVthink
p7722
aVsinkamba
p7723
aVchief
p7724
aVmaintain
p7725
aVresponsibility
p7726
aVmvula
p7727
aVallow
p7728
aVafrican
p7729
aVmkangala
p7730
aVdemocratic
p7731
aVotieno
p7732
aVmake
p7733
aVdeposted
p7734
aVlonger
p7735
aVinfant
p7736
aVkazala
p7737
aVhelp
p7738
aVjosephine
p7739
aVdeveloped
p7740
aVover
p7741
aVjabu
p7742
aVlsk
p7743
aVkwamudhi
p7744
aVdoent
p7745
aVbrain
p7746
aVplastics
p7747
aVmumbi
p7748
aVdstrct
p7749
aVsuffer
p7750
aVits
p7751
aVminga
p7752
aVcomplicate
p7753
aVpolice
p7754
aVthank
p7755
aVdecay
p7756
aVpersonal
p7757
aVjim
p7758
aVbetter
p7759
aVnyahera
p7760
aVmagoyo
p7761
aVgitich
p7762
aVthnk
p7763
aVcontractd
p7764
aVchinunda
p7765
aVvisiting
p7766
aVmfuwe
p7767
aVgoog
p7768
aVthen
p7769
aVnon
p7770
aVsomeone
p7771
aVaffected
p7772
aVprevented
p7773
aVdam
p7774
aVkiller
p7775
aVdai
p7776
aVnation
p7777
aVbreak
p7778
aVmulenga
p7779
aVbang
p7780
aVsections
p7781
aVmomo
p7782
aVeffects
p7783
aVdickson
p7784
aVcompound
p7785
aVnot
p7786
aVthev
p7787
aVsixteen
p7788
aVther
p7789
aVchirwa
p7790
aVinstructions
p7791
aVeasily
p7792
aVlindiwe
p7793
aV2cary
p7794
aVnyundo
p7795
aValways
p7796
aVmthilans
p7797
aVcountries
p7798
aVmchini
p7799
aVunlik
p7800
aV45yrs
p7801
aVherald
p7802
aVdid
p7803
aVbetty
p7804
aV_sometime
p7805
aVodhinane
p7806
aVlets
p7807
aVsorondings
p7808
aVside
p7809
aVngati
p7810
aVmean
p7811
aVtiyese
p7812
aVmadzimawi
p7813
aVeveryone
p7814
aVfinancial
p7815
aVfired
p7816
aVcomzy
p7817
aVgeneration
p7818
aVhouse
p7819
aVhard
p7820
aVlupiya
p7821
aVallan
p7822
aVmadzimawe
p7823
aVsociety
p7824
aVmar
p7825
aVmunet
p7826
aVgating
p7827
aVdie
p7828
aVaids
p7829
aVfredrick
p7830
aVbay
p7831
aVnow
p7832
aVchulu
p7833
aVbrings
p7834
aVout
p7835
aVmerii
p7836
aVmoth
p7837
aVabbygirl
p7838
aVkadundo
p7839
aVrobert
p7840
aVsince
p7841
aVlufeyo
p7842
aVenviroment
p7843
aVgeorge
p7844
aVfarm
p7845
aVjumbe
p7846
aVdaniel
p7847
aVmanda
p7848
aVpapers
p7849
aV18yrs
p7850
aVgot
p7851
aVwick
p7852
aVmnukwa
p7853
aVissue
p7854
aVeary
p7855
aVjael
p7856
aVquare
p7857
aVcary
p7858
aVanze
p7859
aVtimothy
p7860
aVundi
p7861
aVmwape
p7862
aVfred
p7863
aVshud
p7864
aVkilng
p7865
aVcurable
p7866
aVput
p7867
aV4rm
p7868
aVphilip
p7869
aVawelo
p7870
aVcured
p7871
aVher
p7872
aVrapheal
p7873
aVjust
p7874
aVarea
p7875
aVdays
p7876
aVnthani
p7877
aVkeep
p7878
aVturn
p7879
aVdavis
p7880
aVawoman
p7881
aVaustin
p7882
aVkuno
p7883
aVfirst
p7884
aVnsimbo
p7885
aValready
p7886
aVawise
p7887
aVjalango
p7888
aVbreakages
p7889
aVnumber
p7890
aVowned
p7891
aVnyirongo
p7892
aVmphande
p7893
aVdone
p7894
aVlong
p7895
aVanother
p7896
aVcarry
p7897
aVimpossible
p7898
aVmessage
p7899
aVyourselt
p7900
aVakinyi
p7901
aViam
p7902
aVcity
p7903
aVstory
p7904
aVian
p7905
aVdump
p7906
aVdistrict
p7907
aVtop
p7908
aVmsoro
p7909
aVgirls
p7910
aVkod
p7911
aVneatly
p7912
aVplastic
p7913
aVtheir
p7914
aVgyacobo
p7915
aVkoz
p7916
aVmigth
p7917
aVtoo
p7918
aVdaet
p7919
aV_bag
p7920
aVshow
p7921
aVpersion
p7922
aVwhite
p7923
aVjohn
p7924
aVfinal
p7925
aVrigt
p7926
aVticito
p7927
aVlot
p7928
aVmostly
p7929
aVthat
p7930
aVmwadzidzidzi
p7931
aVmalaria_it
p7932
aVissues
p7933
aValbert
p7934
aVrefuse
p7935
aVtee
p7936
aVkwaru
p7937
aVmagodi
p7938
aVwhyson
p7939
aVnyabera
p7940
aVgovrmet
p7941
aVvllage
p7942
aVkupewa
p7943
aVcostantino
p7944
aVthan
p7945
aVnyar
p7946
aVpopulation
p7947
aVdistance
p7948
aVliter
p7949
aVwat
p7950
aVgik
p7951
aVmatter
p7952
aVlisteners
p7953
aVfuture
p7954
aVmarriage
p7955
aVnze
p7956
aVwere
p7957
aVclen
p7958
aVtreated
p7959
aVcureable
p7960
aVand
p7961
aVchasanda
p7962
aVochieng
p7963
aVndambwe
p7964
aVdheks
p7965
aVgals
p7966
aVcolege
p7967
aVmind
p7968
aVodhiambo
p7969
aVnbc
p7970
aVsay
p7971
aVnkhanga
p7972
aVhave
p7973
aVokina
p7974
aVneed
p7975
aVseen
p7976
aVscool
p7977
aVborder
p7978
aVany
p7979
aVbeause
p7980
aVforced
p7981
aVwilson
p7982
aVmin
p7983
aVkils
p7984
aVshawa
p7985
aVable
p7986
aVofficers
p7987
aVsaffering
p7988
aVyamapha
p7989
aValso
p7990
aVlazzy
p7991
aVtake
p7992
aVibex
p7993
aVchizowe
p7994
aVwch
p7995
aVzimba
p7996
aVmartha
p7997
aVchioza
p7998
aVoriang
p7999
aVonyona
p8000
aVsaid
p8001
aVnani
p8002
aVplay
p8003
aVsure
p8004
aVpain
p8005
aVfidel
p8006
aVawendo
p8007
aVpark
p8008
aVakiller
p8009
aVshoza
p8010
aVharmful
p8011
aVmost
p8012
aVvirus
p8013
aVchibolya
p8014
aVeight
p8015
aVasembo
p8016
aVadeadly
p8017
aVrhc
p8018
aVclass
p8019
aVpetauke
p8020
aVmaria
p8021
aVkabvuma
p8022
aVchidambo
p8023
aVforever
p8024
aVcause
p8025
aVacumulated
p8026
aVkwoyo
p8027
aVmobile
p8028
aVcamp
p8029
aVinfections
p8030
aVdisease
p8031
aVmrs
p8032
aVwhich
p8033
aVpart
p8034
aVgreed
p8035
aVpst
p8036
aVpipo
p8037
aVmambwe
p8038
aVmwanza
p8039
aVthomas
p8040
aVenvaloment
p8041
aVshot
p8042
aVbrenda
p8043
aVcornel
p8044
aVhenry
p8045
aVplease
p8046
aVcharles
p8047
aVchiparamba
p8048
aVaply
p8049
aVmerit
p8050
aVending
p8051
aVdiscovered
p8052
aVjastin
p8053
aVplanning
p8054
aVkendu
p8055
aVchikungu
p8056
aVearth
p8057
aVfear
p8058
aVluya
p8059
aVafast
p8060
aVamojo
p8061
aVadzi
p8062
aVpartners
p8063
aVtouches
p8064
aVslow
p8065
aVnoah
p8066
aVikonyowa
p8067
aVchato
p8068
aVdick
p8069
aVkapata
p8070
aVshould
p8071
aVkamuchele
p8072
aVonly
p8073
aVgoing
p8074
aVmsoni
p8075
aVgideon
p8076
aVcircle
p8077
aVbusa
p8078
aVmankhwala
p8079
aVbizaliel
p8080
aVregularly
p8081
aVmuguze
p8082
aVhis
p8083
aVrose
p8084
aVhiv
p8085
aVget
p8086
aVluke
p8087
aVbanned
p8088
aVpunishiment
p8089
aVgainz
p8090
aVssp
p8091
aVnavutica
p8092
aVaim
p8093
aVkillers
p8094
aVfastest
p8095
aVmondo
p8096
aVsakala
p8097
aVnet
p8098
aVsecondary
p8099
aVenemy
p8100
aVmela
p8101
aVbar
p8102
aVtasala
p8103
aVregularlly
p8104
aVmishoro
p8105
aVmedicines
p8106
aVclinic
p8107
aVmorning
p8108
aVlolwe
p8109
aVbag
p8110
aVbad
p8111
aVsinaipezeko
p8112
aVshe
p8113
aVavoidable
p8114
aVisolation
p8115
aVpimo
p8116
aVvincent
p8117
aVjustus
p8118
aVwhere
p8119
aVwuod
p8120
aVhusband
p8121
aVgrag
p8122
aVmadam
p8123
aVarv
p8124
aVmaurice
p8125
aVbenard
p8126
aVoppotunity
p8127
aValorts
p8128
aVemeldah
p8129
aVfelisters
p8130
aVmerits
p8131
aVresult
p8132
aVall
p8133
aVstigma
p8134
aVthroug
p8135
aVincurable
p8136
aVyes
p8137
aVmarraqe
p8138
aVguided
p8139
aVstill
p8140
aVmthunzi
p8141
aVmalaria
p8142
aVdirtynes
p8143
aVsleepin
p8144
aVways
p8145
aVpattern
p8146
aVamale
p8147
aVmanjanja
p8148
aVmwandafisi
p8149
aVkanyinji
p8150
aVstate
p8151
aVwon
p8152
aVvarious
p8153
aVyesterday
p8154
aVkacigamba
p8155
aVtransfered
p8156
aVuyoma
p8157
aVlaw
p8158
aVdiesease
p8159
aV10tyms
p8160
aVken
p8161
aVcariers
p8162
aVmen
p8163
aVjobs
p8164
aVaugust
p8165
aVquire
p8166
aVnature
p8167
aVjoy
p8168
aVvry
p8169
aVbix
p8170
aVmosquitos
p8171
aVignorance
p8172
aVdumisani
p8173
aVjakablack
p8174
aVspare
p8175
aVjoe
p8176
aVkey
p8177
aVtuo
p8178
aVwth
p8179
aVchachi
p8180
aVkilling
p8181
aVcome
p8182
aVposetive
p8183
aVkwasi
p8184
aVboth
p8185
aVcos
p8186
aVaccident
p8187
aVmedicen
p8188
aVmwanjawamthu
p8189
aVkazimule
p8190
aVtaking
p8191
aVcoz
p8192
aVhas
p8193
aVmwelwa
p8194
aVloveness
p8195
aVcalled
p8196
aVjuliana
p8197
aVetc
p8198
aVmawanda
p8199
aVramuro
p8200
aVtaferansoni
p8201
aVboma
p8202
aVodhine
p8203
aVkafulafula
p8204
aVrodgers
p8205
aVcomes
p8206
aVsum
p8207
aVkwa
p8208
aVmwase
p8209
aVnyimsa
p8210
aVmedicene
p8211
aVatacked
p8212
aVsimple
p8213
aVshadrach
p8214
aVperiod
p8215
aVunsable
p8216
aVkasenengwa
p8217
aVmwana
p8218
aVhakuna
p8219
aVdistroy
p8220
aVvillage
p8221
aVmoreover
p8222
aVtrust
p8223
aVmission
p8224
aVkasamanda
p8225
aVhilled
p8226
aVlate
p8227
aVpalace
p8228
aVzizo
p8229
aVasali
p8230
aVespected
p8231
aVokanja
p8232
aVsara
p8233
aVndeda
p8234
aVdue
p8235
aVfrm
p8236
aVnawakwi
p8237
aS'swaraj'
p8238
aVslowly
p8239
aVchange
p8240
aVbasic
p8241
aVkatopola
p8242
aVthngs
p8243
aVukugona
p8244
aVrepacation
p8245
aVwalter
p8246
aVchifukwa
p8247
aVarianda
p8248
aVlife
p8249
aVenable
p8250
aVbaadaye
p8251
aVeasy
p8252
aVreaction
p8253
aVdrugs
p8254
aVmosna
p8255
aVote
p8256
aVmadega
p8257
aVafrica
p8258
aVdieses
p8259
aVmigare
p8260
aVlives
p8261
aVjosiyasi
p8262
aVpersonally
p8263
aVformer
p8264
aVthose
p8265
aVbukama
p8266
aVapplied
p8267
aVaaron
p8268
aVharms
p8269
aVlook
p8270
aVpresidency
p8271
aVinffected
p8272
aVthese
p8273
aVmamana
p8274
aVsex
p8275
aVempolyment
p8276
aVwill
p8277
aVwhile
p8278
aVgondar
p8279
aVserai
p8280
aVcannot
p8281
aVcountry
p8282
aVaid
p8283
aVdominic
p8284
aVproperty
p8285
aVedzi
p8286
aVmicembo
p8287
aVopose
p8288
aVsucces
p8289
aVcifukwa
p8290
aVcostly
p8291
aVthey
p8292
aVcell
p8293
aVungathe
p8294
aValmost
p8295
aVbrot
p8296
aVmlanzi
p8297
aVans
p8298
aVthem
p8299
aVchikando
p8300
aVharambee
p8301
aVcant
p8302
aVgood
p8303
aVmpongwe
p8304
aVkashobondo
p8305
aVthrowing
p8306
aVeveryday
p8307
aVreplacement
p8308
aVinabamba
p8309
aVbags
p8310
aVabele
p8311
aVmbewe
p8312
aVlet
p8313
aVmarelia
p8314
aVdesturb
p8315
aVluangwa
p8316
aVthings
p8317
aVsama
p8318
aVnandy
p8319
aVsomeones
p8320
aVmaka
p8321
aVrubish
p8322
aVnavibe
p8323
aVgetrud
p8324
aVlikose
p8325
aVgirlchild
p8326
aVester
p8327
aVmayard
p8328
aVmiya
p8329
aVmayo
p8330
aVbarned
p8331
aVweek
p8332
aVnundwe
p8333
aVyakuph
p8334
aVsame
p8335
aVdisadvantages
p8336
aVkelvin
p8337
aVextention
p8338
aVplastcs
p8339
aVcarwash
p8340
aVlieta
p8341
aVsudenly
p8342
aVngwane
p8343
aVtwo
p8344
aVstudent
p8345
aVkil
p8346
aVsisters
p8347
aVtreatmemt
p8348
aVkamanga
p8349
aVjaraa
p8350
aVkno
p8351
aVoff
p8352
aVbig
p8353
aVkuzemba
p8354
aVmakes
p8355
aVsiliver
p8356
aVwell
p8357
aVintended
p8358
aVkamine
p8359
aVcheep
p8360
aVperson
p8361
aVwithout
p8362
aVgreatest
p8363
aV2aids
p8364
aVmother
p8365
aVzatekorpe
p8366
aVcure
p8367
aVreintroduce
p8368
aVprevention
p8369
aVnjobvu
p8370
aVabstened
p8371
aVabstain
p8372
aVstores
p8373
aVmalesi
p8374
aVmeleria
p8375
aVmphangwe
p8376
aVbeing
p8377
aVmoney
p8378
aVchisha
p8379
aVjusy
p8380
aVkacakwala
p8381
aVtime
p8382
aVgovt
p8383
aVglita
p8384
aVkill
p8385
aVthanks
p8386
aVvulamkoko
p8387
aVdislve
p8388
aVyears
p8389
aValternative
p8390
aVagness
p8391
aVyet
p8392
aVdown
p8393
aVngizano
p8394
aVprobrem
p8395
aVomondi
p8396
aVdeath
p8397
aValiech
p8398
aVtim
p8399
aVmarrying
p8400
aVnjarazi
p8401
aVweni
p8402
aVjosh
p8403
aVwen
p8404
aVkilled
p8405
aVreasons
p8406
aVsamuel
p8407
aVlabour
p8408
aVparents
p8409
aVhalo
p8410
aVinnocent
p8411
aVngos
p8412
aVjefrey
p8413
aVwil
p8414
aVuncureable
p8415
aVcaptivating
p8416
aVvlge
p8417
aVrnl
p8418
aVmos
p8419
aVprefer
p8420
aVmuseveni
p8421
aVdigital
p8422
aVbecuse
p8423
aVwhts
p8424
aVkillz
p8425
aVearly
p8426
aVtransmit
p8427
aVsuffering
p8428
aVphili
p8429
aVknow
p8430
aVbirth
p8431
aVdestroy
p8432
aVtich
p8433
aValex
p8434
aVbanda
p8435
aValida
p8436
aVbiodegradeble
p8437
aVomollo
p8438
aVmitunda
p8439
aVemma
p8440
aVlike
p8441
aVgift
p8442
aVmararia
p8443
aVpatrick
p8444
aVenerst
p8445
aValice
p8446
aVfwana
p8447
aVparasite
p8448
aVcontinue
p8449
aVnebat
p8450
aVjames
p8451
aVamos
p8452
aVmorover
p8453
aVchipeta
p8454
aV4got
p8455
aVmbalame
p8456
aVthole
p8457
aVfulfil
p8458
aVbecause
p8459
aVold
p8460
aVmpiya
p8461
aVpeople
p8462
aVthe
p8463
aVmaleria
p8464
aVsome
p8465
aVoyugis
p8466
aVmigosi
p8467
aVborn
p8468
aVshowgrounds
p8469
aVkalulu
p8470
aVcomplete
p8471
aVproper
p8472
aVzambia
p8473
aVdevelopment
p8474
aVpeter
p8475
aVgona
p8476
aVinocent
p8477
aVcnt
p8478
aVprimary
p8479
aVtotaly
p8480
aVlead
p8481
aVbilly
p8482
aVavoid
p8483
aVmedi
p8484
aVzulu
p8485
aVper
p8486
aVmwinda
p8487
aVsystem
p8488
aVhofmeyr
p8489
aVleav
p8490
aVmbinga
p8491
aVwarned
p8492
aVokech
p8493
aVcompletly
p8494
aVleader
p8495
aVtabwelanso
p8496
aVssenkusu
p8497
aVobara
p8498
aVdestroys
p8499
aVknew
p8500
aVpatient
p8501
aVscientific
p8502
aVpower
p8503
aVproblems
p8504
aV2buy
p8505
aVlose
p8506
aVday
p8507
aVbeach
p8508
aVwho
p8509
aVogaa
p8510
aVpastors
p8511
aVmiti
p8512
aVcarol
p8513
aVfrancis
p8514
aVpublishing
p8515
aVabout
p8516
aVchamanda
p8517
aVirresiponsible
p8518
aVmamboleo
p8519
aVworld
p8520
aVatiglinyi
p8521
aVgod
p8522
aVmonths
p8523
aVchimwe_mwe
p8524
aVchison
p8525
aVmodester
p8526
aVfeir
p8527
aVjubeva
p8528
aVbecozi
p8529
aVsinda
p8530
aVlundazi
p8531
aVcrure
p8532
aVphiri
p8533
aVmagazini
p8534
aVjimmy
p8535
aVmwami
p8536
aVoniang
p8537
aVkatalira
p8538
aVnyamanga
p8539
aS'xyz'
p8540
aVwithin
p8541
aVprisca
p8542
aVharm
p8543
aVsitambuli
p8544
aVukwimi
p8545
aVchronic
p8546
aVsos
p8547
aVackson
p8548
aVpaper
p8549
aVfemale
p8550
aVjoyce
p8551
aVobety
p8552
aVburdens
p8553
aVabel
p8554
aVquickly
p8555
aVyour
p8556
aVcompanz
p8557
aVknowngly
p8558
aVsoko
p8559
aVav1
p8560
aVibwera
p8561
aVbkoz
p8562
aVfew
p8563
aVmadecin
p8564
aVkawemba
p8565
aVsupport
p8566
aVdaniels
p8567
aVavailable
p8568
aVkunda
p8569
aVfast
p8570
aVcustom
p8571
aVlost
p8572
aVjoseph
p8573
aVinfected
p8574
aVbcoz
p8575
aVway
p8576
aVnthondo
p8577
aVespecialy
p8578
aVseveriano
p8579
aVpamene
p8580
aValot
p8581
aVwas
p8582
aVpatricia
p8583
aVinfect
p8584
aVtreat
p8585
aValthou
p8586
aVatack
p8587
aVokoth
p8588
aVmwamusanga
p8589
aVenough
p8590
aVhavn
p8591
aVmanythings
p8592
aVbecoming
p8593
aVregard
p8594
aVshana
p8595
aVdelayed
p8596
aVbut
p8597
aVmagazi
p8598
aVuzapola
p8599
aVunknowngly
p8600
aVuncle
p8601
aVdead
p8602
aVmodwaro
p8603
aVstrugle
p8604
aVdon
p8605
aVjoembee
p8606
aVapollo
p8607
aVwith
p8608
aVonyinge
p8609
aVnever
p8610
aVagain
p8611
aVhygien
p8612
aVdat
p8613
aVdowry
p8614
aVerick
p8615
aVplaces
p8616
aVnoon
p8617
aVmalalia
p8618
aVdangerous
p8619
aVwife
p8620
aVopondi
p8621
aVsalome
p8622
aVsteven
p8623
aVknowing
p8624
aVbelow
p8625
aVgireya
p8626
aVmain
p8627
aVchiwe
p8628
aVhow
p8629
aVwitin
p8630
aVinfants
p8631
aVproblem
p8632
aVmore
p8633
aVtrips
p8634
aVcare
p8635
aVsearious
p8636
aVstrongly
p8637
aVlungu
p8638
aVroney
p8639
aVmedication
p8640
aVyeas
p8641
aVpin
p8642
aVdeaths
p8643
aVwich
p8644
aVyear
p8645
aVmawere
p8646
aVmike
p8647
aVnavuberg
p8648
aVgeneral
p8649
aVeducated
p8650
aVright
p8651
aVtogether
p8652
aVkayoo
p8653
aVour
p8654
aVpits
p8655
aVeducation
p8656
aVrawi
p8657
aVgirl
p8658
aVare
p8659
aVdimerits
p8660
aVmaparos
p8661
aVcompared
p8662
aVfaithful
p8663
aVdont
p8664
aVhamful
p8665
aVdeadly
p8666
aVthere
p8667
aVwhen
p8668
aVtreatment
p8669
aVrepent
p8670
aVmwamsanga
p8671
aVtil
p8672
aVafford
p8673
aVtin
p8674
aVnico
p8675
aVsick
p8676
aVoscar
p8677
aVkills
p8678
aVyou
p8679
aVdoyo
p8680
aVmwanakashi
p8681
aVpoor
p8682
aVmabuululu
p8683
aVlolo
p8684
aVkapirimphika
p8685
aVmonday
p8686
aVgetting
p8687
aVsenstisation
p8688
aVchiluzi
p8689
aVjune
p8690
aVyalulani
p8691
aVowich
p8692
aVokello
p8693
aValright
p8694
aVchance
p8695
aVksm
p8696
aVstigmatized
p8697
aVatieno
p8698
aVkinda
p8699
aVemusa
p8700
aVspouse
p8701
aVfriends
p8702
aVdied
p8703
aVsource
p8704
aVago
p8705
aVgrief
p8706
aVsuffers
p8707
aVback
p8708
aVfor
p8709
aVusing
p8710
aVpempho
p8711
aVomolo
p8712
aVage
p8713
aVmartin
p8714
aVkeepng
p8715
aVmayana
p8716
aVmsimuko
p8717
aVoriginal
p8718
aVesther
p8719
aVjanamba
p8720
aVgal
p8721
aVstatus
p8722
aVnelson
p8723
aVbcz
p8724
aVdespose
p8725
aVopiyo
p8726
aVserious
p8727
aVgeofrey
p8728
aVonce
p8729
aVhaving
p8730
aVdreams
p8731
aVngulube
p8732
atp8733
Rp8734
s.