(dp0
VSwahili
p1
c__builtin__
set
p2
((lp3
Vsimu
p4
aVkweli
p5
aVwatoto
p6
aVvitu
p7
aVmengi
p8
aV0901006666
p9
aVmengine
p10
aVmwaya
p11
aVmlafu
p12
aVkukupa
p13
aVkutoka
p14
aVujumbe
p15
aVgavile
p16
aVidete
p17
aVkutumia
p18
aVjibu
p19
aVking
p20
aVshilingi
p21
aVsh200
p22
aVkuigiza
p23
aVwalambo
p24
aV15354
p25
aVmfuk0
p26
aVkike
p27
aVbro
p28
aVnaomba
p29
aVtuma
p30
aVkuhusu
p31
aVmpya
p32
aVvingi
p33
aVnimepata
p34
aVuhuru
p35
aVsana
p36
aVvidogovidogo
p37
aVmchemwa
p38
aVwenu
p39
aVinatusaidia
p40
aVumri
p41
aVjofela
p42
aVlipo
p43
aVulimwengu
p44
aVenyi
p45
aVkilolo
p46
aVkwenda
p47
aVmawaidha
p48
aVmunafanya
p49
aVmwanaid
p50
aVnampenda
p51
aVwaswahili
p52
aVwangu
p53
aVyako
p54
aVmifugo
p55
aVasante
p56
aVbure
p57
aVneno
p58
aVwatanzania
p59
aVtalafa
p60
aVrehema
p61
aVmartin
p62
aVwanasema
p63
aVwenye
p64
aVmimi
p65
aV107
p66
aVnickson
p67
aVkagoje
p68
aVupate
p69
aVvifurushi
p70
aVlisemwalo
p71
aVmweka
p72
aVsanga
p73
aVwapya
p74
aVkwa
p75
aVndio
p76
aVrambo
p77
aVndiy0
p78
aVmifuko
p79
aViringa
p80
aVwengine
p81
aVdown
p82
aVyosia
p83
aVunaowajua
p84
aVpoa
p85
aVmke
p86
aVfrom
p87
aVlambo
p88
aVikawa
p89
aVmarafiki
p90
aVkubebea
p91
aVjoseph
p92
aVifakara
p93
aVbaba
p94
aVtaarifa
p95
aVkulingana
p96
aV0901005555
p97
aVmfuko
p98
aVwababa
p99
aVifakala
p100
aVndiyo
p101
aVkifurushi
p102
aVnaitwa
p103
aVkusikiliza
p104
aVjirushesiku
p105
aVmufuko
p106
aVmatumizi
p107
aVlabda
p108
aVkuchagua
p109
aVupumbavu
p110
aVusiku
p111
aVairtel
p112
aVkinachokufaa
p113
aV2richard
p114
aVtanzania
p115
aVomari
p116
aVjirushe
p117
aVdili
p118
aVsauti
p119
aVhawawezi
p120
aVgombe
p121
aVpia
p122
aVkupata
p123
aVunaumuhimu
p124
aVjulias
p125
aVtuache
p126
aVsekondari
p127
aVnipo
p128
aVatie
p129
aVwamama
p130
aVkumsingizia
p131
aVufurahie
p132
aVmbona
p133
aVkafanya
p134
aVkikristo
p135
aVuislam
p136
aVmnawaacha
p137
aVpiga
p138
aVmwalimu
p139
aVdakika
p140
aS'swaraj'
p141
aVapana
p142
aVkupiga
p143
aVwakiume
p144
aVkizee
p145
aV0901004444
p146
aVmorogro
p147
aVyangu
p148
aVwatu
p149
aVmwambola
p150
aVvimeboreshwa
p151
aVkubadirisha
p152
aVkwasababu
p153
aVvya
p154
aVsasa
p155
aVnaweza
p156
aVhapana
p157
atp158
Rp159
sVPortuguese
p160
g2
((lp161
Vvila
p162
aVunica
p163
aVfica
p164
aVmorer
p165
aVsms
p166
aVessas
p167
aVdanca
p168
aVunico
p169
aVfrondoza
p170
aVpreucupado
p171
aVmenor
p172
aVmenos
p173
aVpauca
p174
aVpbreza
p175
aVcorpo
p176
aVseus
p177
aVnhambondo
p178
aVleite
p179
aVpobreza
p180
aVzona
p181
aVpedro
p182
aVver
p183
aVnhamatanda
p184
aVmarcos
p185
aVcresc
p186
aVtais
p187
aVintelezente
p188
aVvee
p189
aVelias
p190
aVabra
p191
aVdassa
p192
aVsuite
p193
aVvel
p194
aVvem
p195
aVsegund
p196
aVolho
p197
aVcrito
p198
aVdela
p199
aVraposo
p200
aVcasamento
p201
aVerensto
p202
aVfar
p203
aVfuturos
p204
aVnhama
p205
aVproduem
p206
aVmiquitaio
p207
aVvera
p208
aVfidelidade
p209
aVopiniao
p210
aVfam
p211
aVcasa
p212
aVfala
p213
aVferiz
p214
aVtenesse
p215
aVcmo
p216
aVxtudr
p217
aVnona
p218
aVvelar
p219
aVextudo
p220
aVinexperad
p221
aVinacio
p222
aVamilton
p223
aVofichal
p224
aVdiz
p225
aVcomprment
p226
aVmundial
p227
aVcompetentes
p228
aVmonecera
p229
aVopcao
p230
aVrocotol
p231
aVhora
p232
aVpork
p233
aVtem
p234
aVseis
p235
aVexperansa
p236
aVguita
p237
aVneste
p238
aVclaudio
p239
aVmatucudor
p240
aVtenesse_nhambondo
p241
aVporq
p242
aVporp
p243
aVter
p244
aVvictor
p245
aVvitimas
p246
aVnem
p247
aVeduaro
p248
aVtipo
p249
aVmanthando
p250
aVcorrer
p251
aV00horasmas
p252
aVsintomas
p253
aVcelestina
p254
aVescola
p255
aVapedir
p256
aVchota
p257
aVcaitano
p258
aVdeles
p259
aVtsuassicana
p260
aVzacariasreceio
p261
aVvisinho
p262
aVprqui
p263
aVdias
p264
aVvamos
p265
aVzondane
p266
aVmauricio
p267
aVbenjami
p268
aVtsussicana
p269
aVirmaos
p270
aVapaltil
p271
aVmndlane
p272
aVoproximo
p273
aVmeu
p274
aVler
p275
aVmelhor
p276
aVpreparar
p277
aVmes
p278
aVluis
p279
aValberto
p280
aVves
p281
aVzinho
p282
aVdisvio
p283
aVtver
p284
aVdxtino
p285
aVcidade
p286
aVcoracao
p287
aVresidente
p288
aVavante
p289
aVchinha
p290
aVaminha
p291
aVevitar
p292
aVaki
p293
aVfemea
p294
aVestrutura
p295
aVbom
p296
aVsocial
p297
aVdirectment
p298
aVnhmssngora
p299
aVobrigado
p300
aVchana
p301
aVrafael
p302
aVfransao
p303
aVjulio
p304
aVelevado
p305
aVbaptista
p306
aVestudari
p307
aVkumwa
p308
aVafrica
p309
aVestudos
p310
aVmenina
p311
aVentrar
p312
aVhumberto
p313
aVrefugio
p314
aVcasare
p315
aVoutra
p316
aVpesar
p317
aVcasari
p318
aVfrasao
p319
aVidade
p320
aVmairosse
p321
aVfamila
p322
aVarrepndimnto
p323
aVando
p324
aVenfermeiro
p325
aVobrigar
p326
aVcatique
p327
aVfel
p328
aVpatrocinador
p329
aVgero
p330
aVcodado
p331
aVmetuchira
p332
aVmarido
p333
aVpur
p334
aVines
p335
aVdificuldads
p336
aVbeatriz
p337
aVaut
p338
aVsort
p339
aVmarcheira
p340
aVcontaminar
p341
aVxta
p342
aVcontinuar
p343
aVoscar
p344
aVreceo
p345
aVmalax
p346
aVrecei
p347
aVsituacao
p348
aVate
p349
aVpequena
p350
aVsra
p351
aVpretendente
p352
aVcontinual
p353
aVamelia
p354
aVpalavra
p355
aVpouco
p356
aVgarantir
p357
aVfredy
p358
aVmagara
p359
aVmelhorar
p360
aVemcontrar
p361
aVabensoa
p362
aVsustemtar
p363
aVsalvador
p364
aVdistruind
p365
aVpremeturo
p366
aVgabriel
p367
aVchacanza
p368
aVasunt
p369
aVdev
p370
aValeixo
p371
aVestdar
p372
aVera
p373
aVaumenta
p374
aVinsistir
p375
aV24hor
p376
aVbajaj
p377
aVdevecazari
p378
aVfaz
p379
aVtirar
p380
aVestudante
p381
aVculad
p382
aVconstruir
p383
aVmenr
p384
aVcaminho
p385
aVvoces
p386
aVsinta
p387
aVuai
p388
aVabaixa
p389
aVsogra
p390
aVconcordar
p391
aVdeveria
p392
aVdiminui
p393
aVfamlia
p394
aVswega
p395
aVanexa
p396
aVcolega
p397
aVestudar
p398
aVdura
p399
aVagina
p400
aVsegudo
p401
aVcasada
p402
aVvelario
p403
aVaument
p404
aVligar
p405
aVmorte
p406
aVcasal
p407
aVpurk
p408
aVprqu
p409
aVconfia
p410
aVria
p411
aVsio
p412
aVtiago
p413
aVsim
p414
aVmap
p415
aVmas
p416
aVmar
p417
aVleceo
p418
aVatan
p419
aVprimeiro
p420
aVsoqui
p421
aVhemem
p422
aVfracao
p423
aVeterna
p424
aVdelcio
p425
aVinternato
p426
aVsexualmente
p427
aVirmazinhas
p428
aVmurombodzi
p429
aVmae
p430
aVseda
p431
aVfars
p432
aVmai
p433
aVmesa
p434
aVsedo
p435
aVmal
p436
aVlar
p437
aVcorega
p438
aVlhe
p439
aVporqe
p440
aVmortes
p441
aVdeve
p442
aVruminha
p443
aVisso
p444
aVideia
p445
aVpassado
p446
aVinveste
p447
aVesudar
p448
aVestude
p449
aVconsientemente
p450
aVgrande
p451
aVestuda
p452
aVbairo
p453
aVculpada
p454
aVqueniasse
p455
aVcotinua
p456
aVsintoma
p457
aVreceamos
p458
aVturma
p459
aVa02
p460
aVsenhora
p461
aVcandido
p462
aVigonore
p463
aVcambota
p464
aVsive
p465
aVsantinha
p466
aVisaquel
p467
aVdoenc
p468
aVjeque
p469
aVapartir
p470
aVmais
p471
aV1classe
p472
aVgente
p473
aVaconselho
p474
aVigrja
p475
aVsobrinhos
p476
aVricardo
p477
aVmilhares
p478
aVsemple
p479
aVstrado
p480
aVxcola
p481
aVporquem
p482
aVmusica
p483
aVesem
p484
aVfim
p485
aVtimoteo
p486
aVapobleza
p487
aVsergio
p488
aVpurque
p489
aVqorqeu
p490
aVenfentada
p491
aVdal
p492
aVcrase
p493
aVnada
p494
aVrepodio
p495
aVnoa
p496
aVdevem
p497
aVmorim
p498
aVdeves
p499
aVmore
p500
aVceu
p501
aVdesenvolda
p502
aVolivia
p503
aVernesto
p504
aVdar
p505
aVdas
p506
aVnhancuco
p507
aVdesgrassa
p508
aVcunhadinhas
p509
aVdelas
p510
aVmaquina
p511
aVnos
p512
aVimportante
p513
aVcazar
p514
aVsenhor
p515
aVfirmina
p516
aVdiscordo
p517
aVjames
p518
aVatuantes
p519
aVpobre
p520
aVtera
p521
aVporta
p522
aVticha
p523
aVmensagem
p524
aVderepente
p525
aVsida
p526
aVvidas
p527
aVfonte
p528
aVcarlos
p529
aVmodo
p530
aVnava
p531
aVfenando
p532
aVjinada
p533
aVliga
p534
aVcorejo
p535
aVconcord
p536
aVdexe
p537
aVcompromete
p538
aVdera
p539
aVaida
p540
aV24h
p541
aVdia
p542
aVprocurar
p543
aVmulher
p544
aVassinate
p545
aVsentistas
p546
aVrelacao
p547
aVlogo
p548
aVdesgraca
p549
aVnossa
p550
aVmorta
p551
aVnosso
p552
aVhenrique
p553
aVmuera
p554
aVsinao
p555
aVnunca
p556
aVmodina
p557
aVmatar
p558
aVpretndent
p559
aVfazer
p560
aVnadica
p561
aVmata
p562
aVcausa
p563
aVleopoldina
p564
aVstela
p565
aVleceio
p566
aVmuinga
p567
aVnovo
p568
aVtenesse_nhambondn
p569
aVapatr
p570
aVpreguicosa
p571
aValguem
p572
aVseguranca
p573
aVtempo
p574
aVsabado
p575
aVfred
p576
aVbase
p577
aVque
p578
aVaceita
p579
aValuna
p580
aVqui
p581
aVimprovisar
p582
aVbelarmino
p583
aVjeremias
p584
aVinok
p585
aVanselmo
p586
aVfrend
p587
aVzeca
p588
aVbitone
p589
aVnhankulupini
p590
aVpaulinoaraujo
p591
aVenlutar
p592
aVisaque
p593
aVrinda
p594
aViso
p595
aVcomando
p596
aVespecial
p597
aVnhamadze
p598
aVaos
p599
aVtivesse
p600
aVrecio
p601
aVnhamisongora
p602
aVanita
p603
aVgermias
p604
aVnhe
p605
aVforca
p606
aVcossequencia
p607
aVapenas
p608
aVkarlos
p609
aVvizinho
p610
aVhelton
p611
aVmingo
p612
aVjesus
p613
aVdona
p614
aVcada
p615
aVunomwa
p616
aVmeninado
p617
aVleva
p618
aVser
p619
aVdescaregar
p620
aVenquanto
p621
aVnome
p622
aVtomane
p623
aVtraicoa
p624
aVcontra
p625
aVmabatiro
p626
aVinocentes
p627
aVporquie
p628
aVmadibe
p629
aVmaulicio
p630
aVhaver
p631
aVexistente
p632
aVtsiquir
p633
aVsegundo
p634
aVchamo
p635
aVquando
p636
aVaceitar
p637
aVdeva
p638
aVasituac
p639
aVporki
p640
aVcrianca
p641
aVdigo
p642
aVincur
p643
aVchitunga
p644
aVenkuando
p645
aVgraca
p646
aVestodar
p647
aVernerto
p648
aVlucas
p649
aVmomentoa
p650
aVmatikiti
p651
aVhortencio
p652
aVfevereiro
p653
aVsta
p654
aVmarcelina
p655
aVbem
p656
aVamanha
p657
aVmussa
p658
aVdai
p659
aVaccao
p660
aVaumentar
p661
aV24horas
p662
aVsera
p663
aVfuturo
p664
aVfausto
p665
aVkuand
p666
aVpaulino
p667
aVclasse
p668
aVpra
p669
aVesta
p670
aVpssoa
p671
aVnovas
p672
aVdevo
p673
aV867896571
p674
aVano
p675
aVpdem
p676
aVprk
p677
aVsembero
p678
aVzuma
p679
aVprq
p680
aVmateu
p681
aVavida
p682
aVdedicando
p683
aVmatucudur
p684
aVdexar
p685
aVsau
p686
aVjeruzarem
p687
aVcherene
p688
aVponder
p689
aVfalares
p690
aVpara
p691
aVsoltucao
p692
aVlil
p693
aVdeixando
p694
aVdeue
p695
aVviolar
p696
aVmalta
p697
aVisto
p698
aVagraca
p699
aVtratado
p700
aVluisa
p701
aVrecebeu
p702
aVcida
p703
aVcazada
p704
aVjacinto
p705
aVtratada
p706
aVdeus
p707
aVganha
p708
aVmolher
p709
aVamae
p710
aVnivel
p711
aVchaibande
p712
aVestevao
p713
aVpicada
p714
aVamai
p715
aVtrasmetido
p716
aVnumero
p717
aVpodera
p718
aVessa
p719
aVestudo
p720
aVbussete
p721
aVamerico
p722
aVnhandoa
p723
aVsandra
p724
aVpais
p725
aVhumanas
p726
aVmedicamento
p727
aValdeia
p728
aVmaria
p729
aVauna
p730
aVtodo
p731
aV5classe
p732
aVsua
p733
aVfalem
p734
aVviolenssa
p735
aVfrederico
p736
aVpermanece
p737
aVasua
p738
aVreusultam
p739
aVpricinpal
p740
aVazinanda
p741
aVaestudal
p742
aVsimplesmente
p743
aVvejamos
p744
aVajudaria
p745
aVbrinsiby
p746
aVtsuasicana
p747
aVmuianga
p748
aVsda
p749
aVaraujo
p750
aVreseio
p751
aVpais_lucas
p752
aVisaia
p753
aVolha
p754
aVconhecido
p755
aVzacarias
p756
aVestoa
p757
aVpreciso
p758
aVcharles
p759
aVteresa
p760
aVriqueza
p761
aVelas
p762
aVensinar
p763
aVqualquer
p764
aVmariana
p765
aVwiliamo
p766
aVvalito
p767
aVestou
p768
aVmatcudur
p769
aVjencio
p770
aVvario
p771
aVcristo
p772
aVtofito
p773
aVpensam
p774
aVefetada
p775
aVimfecoes
p776
aVquem
p777
aVouvir
p778
aVcrime
p779
aVrico
p780
aVcaero_matucudur
p781
aVwayne
p782
aVestara
p783
aVperdoa
p784
aVtudo
p785
aVmercerina
p786
aVmercado
p787
aVsoluc
p788
aVabrasso
p789
aVinferior
p790
aVporque
p791
aVmonica
p792
aVcalhar
p793
aValunos
p794
aVnela
p795
aVreseu
p796
aVfamilias
p797
aVsamuel
p798
aVporqui
p799
aVconvive
p800
aVcora
p801
aVjovem
p802
aVant
p803
aVbernando
p804
aVgrongosa
p805
aVdificel
p806
aVmassamba
p807
aVmaridos
p808
aVbensoal
p809
aVderas
p810
aVmodlane
p811
aVbeb
p812
aVncia
p813
aVortencia
p814
aValfandica
p815
aVdanito
p816
aVtratamento
p817
aVrenseio
p818
aVquembo
p819
aV24hrs
p820
aVnimgue
p821
aVempreendedora
p822
aVseu
p823
aVmudicua
p824
aVlemcopecalam
p825
aVvino
p826
aVbenedita
p827
aVmalariaporque
p828
aVfilnha
p829
aVpuque
p830
aVhumano
p831
aVnhamssongora
p832
aVgorongosiano
p833
aVubaleathu
p834
aVsou
p835
aVduma
p836
aVsem
p837
aVsel
p838
aVliloca
p839
aVfilipe
p840
aVdepos
p841
aVmario
p842
aVtenh
p843
aVanssim
p844
aVfazenda
p845
aVestao
p846
aVcomunual
p847
aVteng
p848
aVtend
p849
aVfraccao
p850
aVfavor
p851
aVdestino
p852
aVsiportar
p853
aVmeninas
p854
aVira
p855
aVforcas
p856
aVdonate
p857
aVtndo
p858
aVseple
p859
aVkem
p860
aVjos
p861
aVcobara
p862
aVprofssors
p863
aVpobresa
p864
aVjox
p865
aVlucilo
p866
aVdercio
p867
aVfutura
p868
aVtrabalhar
p869
aVadoenca
p870
aVcula
p871
aVjoa
p872
aVmapombue
p873
aVnenhum
p874
aVtobias
p875
aVcomo
p876
aVtua
p877
aVsolu
p878
aVker
p879
aVlares
p880
aVxpeciais
p881
aVaqui
p882
aVprovocada
p883
aVxtdr
p884
aVpreta
p885
aVadmin
p886
aVresposta
p887
aVcontiando
p888
aVfalar
p889
aV5mb
p890
aVanos
p891
aVconseguir
p892
aVriaporque
p893
aVcotlnuar
p894
aVpode
p895
aVfacer
p896
aVmarta
p897
aVfilha
p898
aVcom
p899
aVsetembro
p900
aVcon
p901
aVagente
p902
aVtmome
p903
aVdizem
p904
aVaumentala
p905
aVpessoas
p906
aVsalario
p907
aVazinada
p908
aVpor
p909
aVformacao
p910
aVacabar
p911
aVmwana
p912
aVenviando
p913
aVjogador
p914
aVmanencio
p915
aVsao
p916
aVpod
p917
aVpessoa
p918
aVtodas
p919
aValexamdre
p920
aVamigo
p921
aVquene
p922
aVfra
p923
aVstrong
p924
aVinfeccoes
p925
aVgarntia
p926
aVtama
p927
aVntar
p928
aVtaimo
p929
aVgondola
p930
aVdispacho
p931
aVtorsida
p932
aVdevia
p933
aVjona
p934
aVcrian
p935
aVquia
p936
aVsab
p937
aVtipezene
p938
aVabudala
p939
aVcasar
p940
aVmaioria
p941
aVvictorino
p942
aVajudara
p943
aVtsikir
p944
aVploblemas
p945
aVesto
p946
aVprfssor
p947
aVloja
p948
aVeduardo
p949
aVrepende
p950
aVtsausicana
p951
aVdensenvolda
p952
aVsousabairro
p953
aVpista
p954
aVpedrito
p955
aVmenorer
p956
aVfechar
p957
aVtardado
p958
aVpoqui
p959
aVcase
p960
aVaugusto
p961
aVjaime
p962
aVprematuro
p963
aVencaminha_las
p964
aVfortes
p965
aVcaso
p966
aVcvr
p967
aVdenfend
p968
aV50min
p969
aVencontrar
p970
aVmaxixe
p971
aVmaricheira
p972
aVcaronga
p973
aVngue
p974
aVidad
p975
aVradio
p976
aVhomem
p977
aVgimo
p978
aVacontinuar
p979
aVmoz
p980
aVresident
p981
aVsalmo
p982
aVofuturo
p983
aVnhafuri
p984
aVrapidamente
p985
aVdesgracado
p986
aVdemor
p987
aValuno
p988
aVmesma
p989
aVanophele
p990
aVsust
p991
aVxadreqe
p992
aVtsuassica
p993
aVlocutor
p994
aVtazaronda
p995
aVmesmo
p996
aVemprego
p997
aVcausada
p998
aVbingala
p999
aVsantos
p1000
aVajudam
p1001
aVremedio
p1002
aVparte
p1003
aVsemppre
p1004
aVmortais
p1005
aVhoras
p1006
aVpedindo
p1007
aVestrongomeni
p1008
aVpaulo
p1009
aVreceio
p1010
aVeliase
p1011
aVcuenda
p1012
aVamosse
p1013
aVpai
p1014
aVpurqui
p1015
aVdepede
p1016
aVresorve
p1017
aVtodos
p1018
aVadelino
p1019
aVnio
p1020
aVcezar
p1021
aVgra
p1022
aVbairro
p1023
aVnest
p1024
aVnia
p1025
aVfelix
p1026
aVwilson
p1027
aVsisabe
p1028
aVdirector
p1029
aVoportunidade
p1030
aVbinze
p1031
aVescolhe
p1032
aVmestre
p1033
aVesmael
p1034
aVescolha
p1035
aVmovitel
p1036
aVresdnte
p1037
aVtenho
p1038
aVmbanzer
p1039
aVcosta
p1040
aVpatronato
p1041
aVet0do
p1042
aVpoderia
p1043
aVrestaurar
p1044
aVrecorrer
p1045
aVginada
p1046
aVpssa
p1047
aVdsenvolve
p1048
aVantonio
p1049
aVsimao
p1050
aVcriacao
p1051
aVentrega_las
p1052
aVinpreendedora
p1053
aVaestudar
p1054
aVapartr
p1055
aVcomer
p1056
aVepc
p1057
aVtandike
p1058
aVpense
p1059
aVpromete
p1060
aVchore
p1061
aVleiseio
p1062
aVonde
p1063
aVsalva
p1064
aVlutar
p1065
aVexcessivo
p1066
aVtipos
p1067
aVdomingos
p1068
aVdistino
p1069
aVtard
p1070
aVspeed
p1071
aValternativa
p1072
aVjose
p1073
aVmudara
p1074
aV150sms
p1075
aVtrabalh0
p1076
aVcur
p1077
aVmulungu
p1078
aVmandar
p1079
aVxtudar
p1080
aVvida
p1081
aVela
p1082
aVcontinura
p1083
aVrosa
p1084
aVcntinuar
p1085
aVele
p1086
aVparar
p1087
aVgxtou
p1088
aVade
p1089
aVsofrimento
p1090
aVeio
p1091
aVaproxima
p1092
aVdoce
p1093
aVhino
p1094
aVceleste
p1095
aVtomas
p1096
aVbolingo
p1097
aVsonia
p1098
aVperigoso
p1099
aVxadreque
p1100
aVraizes
p1101
aValunas
p1102
aVzidane
p1103
aVterminar
p1104
aVvasco
p1105
aVcotinuar
p1106
aVteste
p1107
aVdurante
p1108
aVviver
p1109
aVasnada
p1110
aVdara
p1111
aVpossivel
p1112
aVdesa
p1113
aVdamiao
p1114
aVaruna
p1115
aVmenma
p1116
aVcontinur
p1117
aVpiorar
p1118
aVarvore
p1119
aVbolso
p1120
aVnhamissongora
p1121
aVmiquicene
p1122
aVoseu
p1123
aVfernando
p1124
aVentidads
p1125
aVjudar
p1126
aVjota
p1127
aVmararia
p1128
aVpois
p1129
aVcontinue
p1130
aVcelio
p1131
aVpropria
p1132
aVcontinua
p1133
aVadamo
p1134
aVsebastiao
p1135
aVpedir
p1136
aVgervasio
p1137
aVchico
p1138
aVfamilha
p1139
aVjanita
p1140
aVajuda_las
p1141
aVwww
p1142
aVpaulina
p1143
aVcomados
p1144
aVnuma
p1145
aVeducacao
p1146
aVforme
p1147
aVestes
p1148
aVapzar
p1149
aVfalado
p1150
aVante
p1151
aVadministrador
p1152
aVdepois
p1153
aVsetebro
p1154
aVpala
p1155
aVstar
p1156
aVsofre
p1157
aVajinada
p1158
aVmassada
p1159
aVjoao
p1160
aVmioda
p1161
aVmaos
p1162
aVeugenia
p1163
aVsquante
p1164
aVest
p1165
aVtnha
p1166
aVterminam
p1167
aVfor
p1168
aVconcluir
p1169
aVzeferino
p1170
aVmorere
p1171
aVchamome
p1172
aVhoje
p1173
aVmedo
p1174
aVdoen
p1175
aVtequi
p1176
aVmuito
p1177
aVpelo
p1178
aVmaezinha
p1179
aVuma
p1180
aVchegara
p1181
aVpromta
p1182
aVprof
p1183
aVrale
p1184
aVcsar
p1185
aVpela
p1186
aVcudzo
p1187
aVcomtinua
p1188
aVmuita
p1189
aVlucas_nhambondo
p1190
aVqueremos
p1191
aVmanta
p1192
aVmateus
p1193
aVtarkinho
p1194
aVjuntamente
p1195
aVsustentara
p1196
aVtda
p1197
aVponde
p1198
aVabensoada
p1199
aVentelegente
p1200
aVmuitax
p1201
aVlobolo
p1202
aVdirepente
p1203
aVsalgar
p1204
aVsanta
p1205
aVmantr
p1206
aVsanto
p1207
aVcondicoes
p1208
aVvictoria
p1209
aVjohane
p1210
aVprecisa
p1211
aVsolucao
p1212
aVgaranto
p1213
aVmorre
p1214
aVainda
p1215
aVmangra
p1216
aVdoeca
p1217
aVprqi
p1218
aVestranham
p1219
aVenternato
p1220
aVwaeze
p1221
aVajudar
p1222
aVamade
p1223
aVmangara
p1224
aVmanha
p1225
aVbetinho
p1226
aVmort
p1227
aVtomo
p1228
aVesse
p1229
aVbetinha
p1230
aVestar
p1231
aVtitos
p1232
aVtome
p1233
aVjeito
p1234
aVaerodromo
p1235
aVpeq
p1236
aVbumark
p1237
aVsara
p1238
aVcazari
p1239
aVesses
p1240
aVtobiasse
p1241
aVzeremane
p1242
aVnervo
p1243
aVparasitas
p1244
aVdique
p1245
aVabracar
p1246
aVgomes
p1247
aVsexuas
p1248
aVmucodza
p1249
aVchegar
p1250
aVvingador
p1251
aVvachamuteco
p1252
aVgorongosa
p1253
aVfilhos
p1254
aVabel
p1255
aVenxada
p1256
aVluno
p1257
aVmahala
p1258
aVtermine
p1259
aVresiste
p1260
aVmondlane
p1261
aVseifar
p1262
aVvai
p1263
aVprepare
p1264
aVhouver
p1265
aVbangorangoma
p1266
aVcasado
p1267
aVsoflimento
p1268
aVafazer
p1269
aVajuda
p1270
aVprocurams
p1271
aVjoaquim
p1272
aVinexperavel
p1273
aVgrave
p1274
aVprogrm
p1275
aVvira
p1276
aVunidad
p1277
aVpodes
p1278
aVpoder
p1279
aVtorna_ra
p1280
aVmbanze
p1281
aVtenqui
p1282
aVleseou
p1283
aVdados
p1284
aVsid
p1285
aVgeral
p1286
aVultrapassar
p1287
aVsacrificio
p1288
aVesposa
p1289
aVfora
p1290
aVconcruiri
p1291
aVconclua
p1292
aVpastor
p1293
aVraceio
p1294
aVpecebe
p1295
aVgora
p1296
aVclemente
p1297
aVflente
p1298
aVseria
p1299
aVfamilia
p1300
aVespeciais
p1301
aVrapidameite
p1302
aVdomingo
p1303
aVgoverno
p1304
aVputo
p1305
aVura
p1306
aVviva
p1307
aVpuqui
p1308
aVpque
p1309
aVvive
p1310
aVorfas
p1311
aVtemq
p1312
aVcomandos
p1313
aVbande
p1314
aVconcluiu
p1315
aVcio
p1316
aVtoda
p1317
aVpeso
p1318
aVdinheiro
p1319
aVminha
p1320
aVporke
p1321
aVmiguel
p1322
aVagora
p1323
aVescrita
p1324
aVmanuel
p1325
aVcontacte
p1326
aVboa
p1327
aVseja
p1328
aVseio
p1329
aVexpande
p1330
aVmtd
p1331
aVadorar
p1332
aVprblema
p1333
aVseguro
p1334
aVconcordo
p1335
aVrogerio
p1336
aVlusaca
p1337
aVapesar
p1338
aVfeliz
p1339
aVdan
p1340
aVmundo
p1341
aV823892734
p1342
aVeduarde
p1343
aVaga
p1344
aVatanasio
p1345
aVcura
p1346
aVhauna
p1347
aVbob
p1348
aVrapido
p1349
aVchiringa
p1350
aVfuro
p1351
aValegria
p1352
aVbencoa
p1353
aVtarde
p1354
aVcoisa
p1355
aVnova
p1356
aVtita
p1357
aVlia
p1358
aVsociais
p1359
aVcadeia
p1360
aVtara
p1361
aVjudas
p1362
aVvisto
p1363
aVnao
p1364
aVabstinencia
p1365
aVmbue
p1366
aVnas
p1367
aVamalaria
p1368
aVxtao
p1369
aVfutur
p1370
aVnau
p1371
aVcontinuando
p1372
aVcabido
p1373
aV820015
p1374
aVcasos
p1375
aVidde
p1376
aVenflenta
p1377
aVcasando
p1378
aVfrancisco
p1379
aS'swaraj'
p1380
aVtendo
p1381
aVintegralment
p1382
aVdireitos
p1383
aVcombater
p1384
aVsecundaria
p1385
aVcanda
p1386
aVoptar
p1387
aVtrecelina
p1388
aVfuncionario
p1389
aVrei
p1390
aVxavier
p1391
aVsacrif
p1392
aVmouzinho
p1393
aVmosquito
p1394
aVgravata
p1395
aVproblema
p1396
aVnesse
p1397
aVaginada
p1398
aVchintuga
p1399
aVdurant
p1400
aVmente
p1401
aVresseio
p1402
aVnatalia
p1403
aVdve
p1404
aVsempre
p1405
aVabensoe
p1406
aVamenina
p1407
aVpoucos
p1408
aVdoenca
p1409
aVxperanca
p1410
aVdpois
p1411
aVprossimo
p1412
aVdos
p1413
aVsumaera
p1414
aVsustentar
p1415
aVmaralia
p1416
aVcamilo
p1417
aVpidamente
p1418
atp1419
Rp1420
sVmalaria
p1421
g2
((lp1422
Vlouis
p1423
aVsinda
p1424
atp1425
Rp1426
sVDholuo
p1427
g2
((lp1428
Vnyaluo
p1429
aVkawuok
p1430
aVnyale
p1431
aVkoti
p1432
aVwabudhgo
p1433
aVfour
p1434
aVoraro
p1435
aVtiba
p1436
aVnegi
p1437
aVfredric
p1438
aVnego
p1439
aVhata
p1440
aVnega
p1441
aVfiya
p1442
aVnege
p1443
aVliech
p1444
aVokulu
p1445
aVsogo
p1446
aVodhiambokoyo
p1447
aVnyanam
p1448
aVunder
p1449
aVkalausi
p1450
aVuru
p1451
aVafarmer
p1452
aVodhis
p1453
aVkakaan
p1454
aVaneno
p1455
aVgounzaga
p1456
aVwilfred
p1457
aVdorina
p1458
aVjacom
p1459
aVjacob
p1460
aVjolwanda
p1461
aVokoyo
p1462
aVschool
p1463
aVokach
p1464
aVangazi
p1465
aVpuonj
p1466
aVokutah
p1467
aVsolution
p1468
aVkowna
p1469
aVatoby
p1470
aVobaya
p1471
aVvuvuzuela
p1472
aVomino
p1473
aVfuane
p1474
aVwalogo
p1475
aVndori
p1476
aVthdum
p1477
aVthiedhe
p1478
aVchew
p1479
aVmli
p1480
aVhore
p1481
aVjasoda
p1482
aVtoruakna
p1483
aVnait
p1484
aVmokwe
p1485
aVkohala
p1486
aVjomadongo
p1487
aVsecond
p1488
aVoyombo
p1489
aVafuayo
p1490
aVpande
p1491
aVenock
p1492
aVobiro
p1493
aVtipo
p1494
aVobaka
p1495
aVasetho
p1496
aVchildren
p1497
aVjawelding
p1498
aVmogo
p1499
aVnew
p1500
aVmbori
p1501
aVkwamundhi
p1502
aVever
p1503
aVomedore
p1504
aVkuayo
p1505
aVmed
p1506
aVatomy
p1507
aVongi
p1508
aVuyoma
p1509
aVeunice
p1510
aVkaribu
p1511
aVonga
p1512
aVstudio
p1513
aVdoro
p1514
aVgonja
p1515
aVojwa
p1516
aVomak
p1517
aVkida
p1518
aVako
p1519
aVinyalo
p1520
aVtwakmikelono
p1521
aVkwergie
p1522
aVjoshua
p1523
aVdalawa
p1524
aVkoja
p1525
aVbenter
p1526
aVmeshack
p1527
aVnakuru
p1528
aVjasaye
p1529
aVreagan
p1530
aVschooling
p1531
aVcounty
p1532
aVodero
p1533
aVpreasurer
p1534
aVokwalo
p1535
aVelmard
p1536
aVsarah
p1537
aVplot
p1538
aVdna
p1539
aVhephy
p1540
aVjodongo
p1541
aVmaen
p1542
aVtela
p1543
aVratta
p1544
aVmusic
p1545
aVpassport
p1546
aVadang
p1547
aVkabonyo
p1548
aVora
p1549
aVjoshwa
p1550
aVapar
p1551
aVbejemin
p1552
aVbrings
p1553
aVmusa
p1554
aVkamalisa
p1555
aVawiti
p1556
aVgijo
p1557
aValiwa
p1558
aVkamadara
p1559
aVward
p1560
aVadwaro
p1561
aVkipsamwe
p1562
aVjakoyugi
p1563
aVnyawawano
p1564
aVroom
p1565
aVakala
p1566
aVkodi
p1567
aVawinjgi
p1568
aVwork
p1569
aVkoda
p1570
aVondith
p1571
aVonditi
p1572
aVhenry
p1573
aVowuogi
p1574
aVero
p1575
aVerk
p1576
aVwanka
p1577
aVwang
p1578
aVwand
p1579
aVgive
p1580
aVhousehold
p1581
aVmodng
p1582
aVosieko
p1583
aVwant
p1584
aVneema
p1585
aVwawinj
p1586
aVmachuok
p1587
aVeng
p1588
aVowilly
p1589
aVayaki
p1590
aVhow
p1591
aVyvone
p1592
aVjokoling
p1593
aVawnji
p1594
aVgate
p1595
aVmoska
p1596
aVbeach
p1597
aVlam
p1598
aVgimed
p1599
aVlwanda
p1600
aVbeauty
p1601
aVafter
p1602
aVsedy
p1603
aVfestus
p1604
aVminken
p1605
aVseda
p1606
aVachieng
p1607
aVsalina
p1608
aVdongi
p1609
aVlaw
p1610
aVarch
p1611
aVjaley
p1612
aVoyuera
p1613
aVnyakungru
p1614
aVpadri
p1615
aVodila
p1616
aVlaventa
p1617
aVnyangero
p1618
aVdaktari
p1619
aVkakola
p1620
aVhores
p1621
aVenter
p1622
aVnyangere
p1623
aVwecheni
p1624
aVgidi
p1625
aVjack
p1626
aVjachien
p1627
aVsalon
p1628
aVnaman
p1629
aVkotieno
p1630
aVmaber
p1631
aVkailabwanda
p1632
aVruakna
p1633
aVhelena
p1634
aVmadiany
p1635
aVwuo
p1636
aVnyironge
p1637
aVasaly
p1638
aVobambo
p1639
aValoice
p1640
aVpius
p1641
aVasali
p1642
aVmatured
p1643
aVsonye
p1644
aVorua
p1645
aVoburu
p1646
aVlitein
p1647
aVthen
p1648
aVthem
p1649
aVdem
p1650
aVprevented
p1651
aVjarata
p1652
aVsadok
p1653
aVbang
p1654
aVshameful
p1655
aVthey
p1656
aVokonamba
p1657
aVsaulo
p1658
aVtreezer
p1659
aVnduru
p1660
aValex
p1661
aVankode
p1662
aVlucy
p1663
aVmahero
p1664
aVolidho
p1665
aVolima
p1666
aVdiana
p1667
aVsasta
p1668
aVallan
p1669
aVjokan
p1670
aVosio
p1671
aVmilao
p1672
aVdawa
p1673
aVkowe
p1674
aVstealing
p1675
aVaredo
p1676
aVlogo
p1677
aV3years
p1678
aVborne
p1679
aVkuwe
p1680
aVgoi
p1681
aVgod
p1682
aVapudo
p1683
aVombi
p1684
aVsms
p1685
aVolueny
p1686
aVjanyahera
p1687
aVkasila
p1688
aVmayauru
p1689
aVgot
p1690
aVobera
p1691
aVkamigoyono
p1692
aVjudith
p1693
aVgor
p1694
aVoyaer
p1695
aVluanda
p1696
aVluande
p1697
aVjirani
p1698
aVchalsea
p1699
aVsana
p1700
aVtangnedendi
p1701
aVngimau
p1702
aVtobende
p1703
aVakoth
p1704
aVoyungu
p1705
aVata
p1706
aVato
p1707
aVango
p1708
aVasugo
p1709
aVhasane
p1710
aVisn
p1711
aVsoda
p1712
aVdamaris
p1713
aVngama
p1714
aVheavy2
p1715
aVaduma
p1716
aVrusinga
p1717
aVcharacters
p1718
aVolago
p1719
aVwabedo
p1720
aVgiko
p1721
aVkoduogo
p1722
aVdadangu
p1723
aVnyaur
p1724
aVdogo
p1725
aVwishers
p1726
aVtheir
p1727
aVmakowone
p1728
aVnomia
p1729
aVochilo
p1730
aVgirls
p1731
aVtok
p1732
aVtoo
p1733
aVtom
p1734
aVapwoyo
p1735
aVjohn
p1736
aVquinta
p1737
aVamallo
p1738
aVgodwince
p1739
aVitare
p1740
aVochara
p1741
aVkimirwa
p1742
aVzephenia
p1743
aVmerimela
p1744
aVhelen
p1745
aVdadi
p1746
aVziro
p1747
aVmercy
p1748
aVologo
p1749
aVoyuma
p1750
aVayueyo
p1751
aVopiso
p1752
aVmoloyo
p1753
aValila
p1754
aVkomak
p1755
aVkolum
p1756
aVoyuga
p1757
aVsabato
p1758
aVjamandas
p1759
aVmelvine
p1760
aVoyugi
p1761
aViwinjo
p1762
aVjongi
p1763
aVotemag
p1764
aVochieng
p1765
aVrae
p1766
aVmina
p1767
aVnyakuar
p1768
aVbejamin
p1769
aVcaleb
p1770
aVchako
p1771
aVobora
p1772
aVoketne
p1773
aVras
p1774
aVcodinata
p1775
aVseen
p1776
aVadhi
p1777
aVseek
p1778
aVdivaz
p1779
aVdutote
p1780
aVmigawo
p1781
aVdivas
p1782
aVohand
p1783
aVonyoni
p1784
aVndeda
p1785
aVobonyo
p1786
aVmwalimu
p1787
aVoyugis
p1788
aV0yugi
p1789
aVmathews
p1790
aVmother
p1791
aVmijwek
p1792
aVayieko
p1793
aVwinam
p1794
aVgibaro
p1795
aVopted
p1796
aVdok
p1797
aVdon
p1798
aVflow
p1799
aVruwoth
p1800
aVabonyo
p1801
aVochunowa
p1802
aVnyadhine
p1803
aVogara
p1804
aVseka
p1805
aVmakata
p1806
aVgladis
p1807
aVgouta
p1808
aVbomb
p1809
aVsaga
p1810
aVlizz
p1811
aVlizy
p1812
aVteresa
p1813
aVariyo
p1814
aVisaya
p1815
aVradio
p1816
aVnang
p1817
aVodoyokankiwa
p1818
aVlensa
p1819
aVukuweka
p1820
aVjatishat
p1821
aVchalirs
p1822
aValima
p1823
aVwadeya
p1824
aVnyagoko
p1825
aVnitulize
p1826
aVmbele
p1827
aVgideon
p1828
aVocs
p1829
aVobhiambo
p1830
aVmonica
p1831
aVandila
p1832
aVkaka
p1833
aVvannie
p1834
aValili
p1835
aVtrazy
p1836
aVmarombeyi
p1837
aVgogi
p1838
aValily
p1839
aVkue
p1840
aVobed
p1841
aVyamogi
p1842
aVkalemo
p1843
aVbar
p1844
aVbas
p1845
aVjakobo
p1846
aVmigare
p1847
aVner
p1848
aVhello
p1849
aVbay
p1850
aVlolwe
p1851
aVbag
p1852
aVbam
p1853
aVnyalego
p1854
aVokawo
p1855
aVongo
p1856
aVjob
p1857
aVnyakesh
p1858
aVosiepa
p1859
aVosito
p1860
aVwakaw
p1861
aVosiepe
p1862
aVamanyo
p1863
aVrobby
p1864
aVkinyonga
p1865
aVbatoto
p1866
aVjakadete
p1867
aVchiemo
p1868
aVbest
p1869
aVmangoes
p1870
aVjakarota
p1871
aVnerea
p1872
aVnyakogiri
p1873
aVbaiskeli
p1874
aVagos
p1875
aVgode
p1876
aVnyakenya
p1877
aVhera
p1878
aVringa
p1879
aVchode
p1880
aVonge
p1881
aVterms
p1882
aVkaachiel
p1883
aVflexis
p1884
aVnewa
p1885
aVomo
p1886
aVokongo
p1887
aVswalimingi
p1888
aVaiga
p1889
aVnamba
p1890
aVgiketo
p1891
aVipande
p1892
aVwachno
p1893
aVambuki
p1894
aVtingo
p1895
aVcarwash
p1896
aVuni
p1897
aVuhero
p1898
aVkwa
p1899
aVkwe
p1900
aVmodhiera
p1901
aVjonyagowa
p1902
aVniya
p1903
aVosiko
p1904
aVtony
p1905
aVnyasaye
p1906
aVrep
p1907
aVtiang
p1908
aVjaringa
p1909
aVjamadoido
p1910
aVyieke
p1911
aVothuno
p1912
aVolum
p1913
aVarombo
p1914
aVfrm
p1915
aVting
p1916
aVeduawin
p1917
aVruako
p1918
aVdetrimental
p1919
aVtina
p1920
aVkajulu
p1921
aVmakende
p1922
aVjaadha
p1923
aVenocka
p1924
aVlife
p1925
aVnayo
p1926
aVawange
p1927
aVselin
p1928
aVokende
p1929
aVpheobe
p1930
aVatieno
p1931
aVdave
p1932
aVkudos
p1933
aVchild
p1934
aVndhekz
p1935
aVcambi
p1936
aVdoto
p1937
aVonyi
p1938
aVdavi
p1939
aVtirus
p1940
aVatiang
p1941
aVeast
p1942
aVabuto
p1943
aVcastro
p1944
aVnear
p1945
aVjaod
p1946
aVmedore
p1947
aVnerwa
p1948
aVkodu
p1949
aVkwaru
p1950
aVjese
p1951
aVequator
p1952
aVcony
p1953
aVwayuego
p1954
aVnineve
p1955
aVcant
p1956
aVnyakinda
p1957
aVjared
p1958
aVjok
p1959
aVconi
p1960
aVwuodjiariyo
p1961
aVmachalo
p1962
aVodongo
p1963
aVgrown
p1964
aVdhi
p1965
aVpliz
p1966
aVniko
p1967
aVmaka
p1968
aVnikech
p1969
aVkaburu
p1970
aVolasi
p1971
aVocampo
p1972
aVonyoo
p1973
aVvegetable
p1974
aVmiya
p1975
aVnyogwanga
p1976
aVjakusa
p1977
aVahenda
p1978
aVayoo
p1979
aVlorhen
p1980
aVobaga
p1981
aVkit
p1982
aVkik
p1983
aVmoko
p1984
aVkin
p1985
aVosawa
p1986
aVsupper
p1987
aVbomet
p1988
aVtyson
p1989
aVtung
p1990
aVgotkoduogo
p1991
aVlucas
p1992
aVkomaki
p1993
aVmin
p1994
aVdada
p1995
aVgame
p1996
aVtho
p1997
aVdady
p1998
aVitiyo
p1999
aVthi
p2000
aVepi
p2001
aVsirkal
p2002
aVromo
p2003
aVrespar
p2004
aVodinpo
p2005
aVthumbe
p2006
aVowili
p2007
aVafama
p2008
aVakwayi
p2009
aVyes
p2010
aVakwayo
p2011
aVotudore
p2012
aVfamily
p2013
aVshoun
p2014
aVkelo
p2015
aVnguono
p2016
aVele
p2017
aVruak
p2018
aVmagijokinda
p2019
aVhas
p2020
aVmapile
p2021
aVjaseme
p2022
aVwuoyo
p2023
aVrnl
p2024
aVvin
p2025
aV233570
p2026
aVdonat
p2027
aVwayueyo
p2028
aVbando
p2029
aVkoblo
p2030
aVonyal
p2031
aVkamariga
p2032
aVaram
p2033
aVbro
p2034
aVkazi
p2035
aVtugogo
p2036
aValice
p2037
aVkristo
p2038
aVnight
p2039
aVamos
p2040
aVamor
p2041
aVoberana
p2042
aVeema
p2043
aVjiks
p2044
aVabiero
p2045
aVright
p2046
aVpeople
p2047
aVjachiga
p2048
aVchuodho
p2049
aVborn
p2050
aVdonald
p2051
aVochue
p2052
aVgwono
p2053
aVmowero
p2054
aVasipo
p2055
aVkoro
p2056
aVwariure
p2057
aVich
p2058
aVfor
p2059
aVabedo
p2060
aVedendi
p2061
aVfidel
p2062
aVoyudre
p2063
aVkamgere
p2064
aVnyamarwaka
p2065
aVmasani
p2066
aVkiliment
p2067
aVaduaro
p2068
aVorwa
p2069
aVokado
p2070
aVndiela
p2071
aVambira
p2072
aVamimo
p2073
aVsifa
p2074
aVplz
p2075
aVnafuttali
p2076
aVpeep
p2077
aVpli
p2078
aVgeff
p2079
aVmalaki
p2080
aVeat
p2081
aVchoke
p2082
aVkatiba
p2083
aVmzike
p2084
aVabito
p2085
aVhorizon
p2086
aVoromo
p2087
aVoketch
p2088
aVadek
p2089
aVotwekgo
p2090
aVnyapacho
p2091
aVjavan
p2092
aVsom
p2093
aVolewe
p2094
aVosom
p2095
aVsuba
p2096
aVwan
p2097
aVsupport
p2098
aVberly
p2099
aVdewo
p2100
aVkatieno
p2101
aVjoseph
p2102
aVomogo
p2103
aVgimose
p2104
aVway
p2105
aVjakachungo
p2106
aVjane
p2107
aVgin
p2108
aVavocados
p2109
aVjana
p2110
aVgij
p2111
aVnyikwa
p2112
aVpako
p2113
aVokoth
p2114
aVform
p2115
aVmbasna
p2116
aVmakajanyuol
p2117
aVkindagitich
p2118
aVoyier
p2119
aVpiyo
p2120
aVcoblo
p2121
aVlawi
p2122
aVpesa
p2123
aVbenjami
p2124
aVnyokana
p2125
aVkadel
p2126
aVmtu
p2127
aVenthnicty
p2128
aVagwambo
p2129
aVadori
p2130
aVsupa
p2131
aVsoja
p2132
aVnyakatolo
p2133
aVkochogo
p2134
aVerustus
p2135
aVescape
p2136
aVrangwe
p2137
aVisrael
p2138
aVperes
p2139
aVparwa
p2140
aVonesmus
p2141
aVmolo
p2142
aVperez
p2143
aVnakazi
p2144
aVmrs
p2145
aVtangne
p2146
aVsamson
p2147
aVkwbwai
p2148
aVmovin
p2149
aVneyane
p2150
aVwhen
p2151
aVoyor
p2152
aVtim
p2153
aVobar
p2154
aVmbei
p2155
aVtij
p2156
aVochonjo
p2157
aVogaa
p2158
aVtochuno
p2159
aVdoyo
p2160
aVminlizy
p2161
aVorato
p2162
aVcenter
p2163
aVmlanda
p2164
aVinego
p2165
aVmokuongo
p2166
aVaruto
p2167
aVayoro
p2168
aVoyisa
p2169
aVholynes
p2170
aVfaster
p2171
aVleah
p2172
aVpusy
p2173
aVewo
p2174
aVbedo
p2175
aVmangongo
p2176
aVkonyruok
p2177
aVminwa
p2178
aVtime
p2179
aVobunga
p2180
aVpusi
p2181
aVoyoko
p2182
aVtimo
p2183
aVmikumu
p2184
aVdavas
p2185
aVgowi
p2186
aVopato
p2187
aVmily
p2188
aVleads
p2189
aVosewacho
p2190
aVmanager
p2191
aVogochna
p2192
aVatibo
p2193
aVspidi
p2194
aVmilk
p2195
aVmwanamke
p2196
aVotamre
p2197
aVoyud
p2198
aVclarification
p2199
aVtosha
p2200
aVnamann
p2201
aVfather
p2202
aVoludhe
p2203
aVgigo
p2204
aVohala
p2205
aVmakambudi
p2206
aVongiyo
p2207
aVonyallo
p2208
aVhellen
p2209
aVbrown
p2210
aVmakare
p2211
aVjera
p2212
aVbret
p2213
aVabenjo
p2214
aVokwach
p2215
aVechokruok
p2216
aVogol
p2217
aVobondo
p2218
aVnikitetemesga
p2219
aVjastine
p2220
aVdid
p2221
aVenok
p2222
aVwilkister
p2223
aVchabera
p2224
aVinyal
p2225
aVakenya
p2226
aVyala
p2227
aVdiz
p2228
aVteam
p2229
aVjowadwa
p2230
aVkisumu
p2231
aVupper
p2232
aVakinyi
p2233
aVkephas
p2234
aVduogo
p2235
aVaganyo
p2236
aVmakagwa
p2237
aVkidiga
p2238
aVkisumo
p2239
aVanbende
p2240
aVnyaguda
p2241
aVconstitution
p2242
aVeliza
p2243
aVonyisi
p2244
aVmrkt
p2245
aVwagotich
p2246
aVonyalo
p2247
aVdinde
p2248
aVchunye
p2249
aVmapiyo
p2250
aVtusker
p2251
aVedala
p2252
aVkama
p2253
aVamala
p2254
aVmabinju
p2255
aVchunygi
p2256
aVdwaro
p2257
aVamalo
p2258
aVsaitoti
p2259
aVdenda
p2260
aVodagi
p2261
aVdendi
p2262
aVboy
p2263
aVbange
p2264
aVnyako
p2265
aVagulu
p2266
aVhesbon
p2267
aVkindagititich
p2268
aVnyaka
p2269
aVeka
p2270
aVsunga
p2271
aVbondoo
p2272
aVexams
p2273
aV438
p2274
aVmargot
p2275
aVdoris
p2276
aVagulo
p2277
aVobugi
p2278
aVewaiting
p2279
aVramba
p2280
aVthrees
p2281
aVachuanyora
p2282
aV1st
p2283
aVmarket
p2284
aVkagin
p2285
aVdudi
p2286
aVngt
p2287
aVnyakoko
p2288
aVpere
p2289
aVkamnara
p2290
aVsoko
p2291
aVlive
p2292
aVngode
p2293
aVskul
p2294
aVwolta
p2295
aVgotea
p2296
aVclub
p2297
aVgwassi
p2298
aVoruba
p2299
aVdismas
p2300
aVooko
p2301
aVokonego
p2302
aVoduaro
p2303
aVndiege
p2304
aVjaranga
p2305
aVjorim
p2306
aVoor
p2307
aVjotend
p2308
aVjotene
p2309
aVsylvia
p2310
aVnyandori
p2311
aVemmauel
p2312
aVongoche
p2313
aVnyis
p2314
aVcap
p2315
aVajowi
p2316
aVgeyo
p2317
aVjudy
p2318
aVoriti
p2319
aVcan
p2320
aVflo
p2321
aVmakini
p2322
aVgrowing
p2323
aVajigo
p2324
aVjondik
p2325
aVugenya
p2326
aVngat
p2327
aVasiko
p2328
aVagent
p2329
aVoyengwe
p2330
aVpurity
p2331
aVnyaliech
p2332
aVdennis
p2333
aVngai
p2334
aVbegi
p2335
aVkanene
p2336
aVmike
p2337
aVpiny
p2338
aVnyo
p2339
aVsilas
p2340
aVprezida
p2341
aVnya
p2342
aVeconomy
p2343
aVochamo
p2344
aVlido
p2345
aVmar
p2346
aVokeyo
p2347
aVochami
p2348
aVmay
p2349
aVkambare
p2350
aVjaohangla
p2351
aVanyiewone
p2352
aVmac
p2353
aVmae
p2354
aVguyz
p2355
aVmag
p2356
aVsuch
p2357
aVmak
p2358
aVmam
p2359
aVamunga
p2360
aVman
p2361
aVmauyoma
p2362
aVwasemolo
p2363
aVoriedo
p2364
aVogwajo
p2365
aVvoice
p2366
aVnyakabonyo
p2367
aVkura
p2368
aVmaxwel
p2369
aVmango
p2370
aVoonje
p2371
aVafrican
p2372
aVhassan
p2373
aVnyanaya
p2374
aVores
p2375
aVugnj
p2376
aVjosphin
p2377
aVmagot
p2378
aVwadua
p2379
aVfwanae
p2380
aVojuang
p2381
aVcoly
p2382
aVngikni
p2383
aVakonogi
p2384
aVjocy
p2385
aVpokotugo
p2386
aVyears
p2387
aVkanyo
p2388
aVamosi
p2389
aVstill
p2390
aVbenjamin
p2391
aVamoso
p2392
aVjapicha
p2393
aVjoyce
p2394
aVgroup
p2395
aVthank
p2396
aVkamillambo
p2397
aVauma
p2398
aVenni
p2399
aVsomna
p2400
aVmosiko
p2401
aVotegno
p2402
aVgem
p2403
aVfarmer
p2404
aVokela
p2405
aVjasino
p2406
aValokoyamo
p2407
aVlunch
p2408
aVdrilling
p2409
aVapeji
p2410
aVhalf
p2411
aVnot
p2412
aVnow
p2413
aVhall
p2414
aVterm
p2415
aVchuade
p2416
aVservant
p2417
aVjames
p2418
aVyuoth
p2419
aVkenyata
p2420
aVjomo
p2421
aVjatogo
p2422
aVjoma
p2423
aVmbuya
p2424
aVagin
p2425
aVkani
p2426
aVirine
p2427
aVmambo
p2428
aVukimwi
p2429
aVowuor
p2430
aVowuon
p2431
aVjowinjo
p2432
aVwachiew
p2433
aVapida
p2434
aVjatij
p2435
aVfredrick
p2436
aVowino
p2437
aVgavana
p2438
aVelizabeth
p2439
aVnyalo
p2440
aVjayadh
p2441
aVkenn
p2442
aVopener
p2443
aVpamela
p2444
aVwinjo
p2445
aVogambi
p2446
aVamigoh
p2447
aVjolendo
p2448
aVoro
p2449
aVbarak
p2450
aVatice
p2451
aVestations
p2452
aVmimi
p2453
aVberil
p2454
aV0mbija
p2455
aValphas
p2456
aVolandore
p2457
aVkaranja
p2458
aVmogenowa
p2459
aVmotion
p2460
aVthing
p2461
aVgordon
p2462
aVyesu
p2463
aVstar
p2464
aVfirst
p2465
aVwiki
p2466
aVnyakuwar
p2467
aVzam
p2468
aVjalango
p2469
aVong
p2470
aVone
p2471
aVrevaet
p2472
aVpoline
p2473
aVmbeyi
p2474
aVgeorge
p2475
aVcassava
p2476
aVyie
p2477
aVcity
p2478
aVosogo
p2479
aVjusfin
p2480
aVjeliz
p2481
aVbiti
p2482
aVagangu
p2483
aVekwanda
p2484
aVwawaria
p2485
aVodindo
p2486
aVyik
p2487
aVroseline
p2488
aVbenard
p2489
aVyamo
p2490
aVmasala
p2491
aVagango
p2492
aVojoru
p2493
aVbobi
p2494
aVthat
p2495
aVdemocraticly
p2496
aVobingo
p2497
aVongao
p2498
aVosetimo
p2499
aVthan
p2500
aVinjinia
p2501
aVldda
p2502
aValemne
p2503
aVogundo
p2504
aVkarata
p2505
aVwere
p2506
aVkagintie
p2507
aVmalami
p2508
aVwero
p2509
aVand
p2510
aVane
p2511
aVang
p2512
aVsan
p2513
aVsam
p2514
aVsaa
p2515
aVmatek
p2516
aVpri
p2517
aVsae
p2518
aVvoices
p2519
aVlicy
p2520
aVloko
p2521
aVmidhiero
p2522
aVkevin
p2523
aVburnin
p2524
aVjakochia
p2525
aVjabondo
p2526
aVaside
p2527
aVogoch
p2528
aVnungo
p2529
aVpaulin
p2530
aVodanga
p2531
aVtake
p2532
aVperformance
p2533
aVurge
p2534
aVsure
p2535
aVopposite
p2536
aVpastor
p2537
aVajaiga
p2538
aVasembo
p2539
aVjenipher
p2540
aVchieng
p2541
aVjwalago
p2542
aVsali
p2543
aVdorice
p2544
aVonego
p2545
aVespecially
p2546
aVnkuma
p2547
aVrispa
p2548
aVoguda
p2549
aVconstable
p2550
aVmagambo
p2551
aVsaly
p2552
aVrarieda
p2553
aVlawy
p2554
aVobedi
p2555
aVprofessional
p2556
aVnyairo
p2557
aVgimamana
p2558
aVobedo
p2559
aVshop
p2560
aVmeshak
p2561
aVtololwe
p2562
aVkende
p2563
aVshow
p2564
aVusibadilishe
p2565
aVkendo
p2566
aV0737146952
p2567
aVmakasembo
p2568
aVaseyuoro
p2569
aVobote
p2570
aVtiyo
p2571
aVgangre
p2572
aVmikai
p2573
aVdick
p2574
aVfeni
p2575
aVkesi
p2576
aVotis
p2577
aVonly
p2578
aVgoing
p2579
aVsakwa
p2580
aVodwoko
p2581
aVcaroline
p2582
aVmamna
p2583
aVoyie
p2584
aVger
p2585
aVjosinta
p2586
aVkitale
p2587
aVsamuel
p2588
aVokelo
p2589
aVmondo
p2590
aVachieyo
p2591
aVgen
p2592
aVmondi
p2593
aVsecondary
p2594
aVkanisana
p2595
aVkefa
p2596
aVmowergi
p2597
aVgirl
p2598
aVotengo
p2599
aVlum
p2600
aVwuoi
p2601
aVotiende
p2602
aVnyabudho
p2603
aVoyomo
p2604
aVwuon
p2605
aVcithia
p2606
aVtijega
p2607
aVwuod
p2608
aVwaringa
p2609
aVwanyika
p2610
aViusogi
p2611
aVelida
p2612
aVmosoriot
p2613
aVerica
p2614
aVlincon
p2615
aVjaraha
p2616
aVruadhmogo
p2617
aVawuor
p2618
aVarita
p2619
aVawuok
p2620
aVestar
p2621
aVwaya
p2622
aVjasindo
p2623
aVachar
p2624
aVowil
p2625
aVvelma
p2626
aVjaote
p2627
aVmathoth
p2628
aVminlolwe
p2629
aVelijah
p2630
aVjoba
p2631
aVtuo
p2632
aVslivia
p2633
aVamori
p2634
aVcome
p2635
aV6yrs
p2636
aVmany
p2637
aVdedicate
p2638
aVmoreso
p2639
aVjeremia
p2640
aVmana
p2641
aVigoyo
p2642
aVblasto
p2643
aVagesh
p2644
aVcelebral
p2645
aVmang
p2646
aVabimbo
p2647
aVjakodada
p2648
aVamosojokanyangokot
p2649
aVmano
p2650
aVlumumba
p2651
aVkey
p2652
aVkadho
p2653
aVjomba
p2654
aVctzns
p2655
aVsiia
p2656
aVpuonjruok
p2657
aVanto
p2658
aVaminda
p2659
aVkonyo
p2660
aVduto
p2661
aVnyatigo
p2662
aVlamo
p2663
aVpod
p2664
aVkonya
p2665
aVmare
p2666
aVmarg
p2667
aVmara
p2668
aVamora
p2669
aVorum
p2670
aVbarry
p2671
aVturker
p2672
aVmari
p2673
aVodhiambojainungo
p2674
aVmark
p2675
aVsesa
p2676
aVmaru
p2677
aVnyagem
p2678
aVsese
p2679
aVnyagowa
p2680
aVrebman
p2681
aVcaren
p2682
aVmary
p2683
aVgombe
p2684
aVkaok
p2685
aVmaboyo
p2686
aVdhex
p2687
aVmosna
p2688
aVowunr
p2689
aVmaboya
p2690
aVandrew
p2691
aVjopuonj
p2692
aVisaac
p2693
aVmalela
p2694
aVyudna
p2695
aVaselal
p2696
aVsophy
p2697
aVjope
p2698
aVmamana
p2699
aVnyasayene
p2700
aVgingo
p2701
aVojosho
p2702
aVnyara
p2703
aVolambo
p2704
aVbeatriece
p2705
aVnyabungu
p2706
aVbevaline
p2707
aVodhikatedokamano
p2708
aVaccording
p2709
aVmiddle
p2710
aVodiwuor
p2711
aVapako
p2712
aVobuya
p2713
aVkenya
p2714
aVpamella
p2715
aVworry
p2716
aVakwayone
p2717
aVpap
p2718
aVbags
p2719
aVsami
p2720
aVpastar
p2721
aVnyaurunda
p2722
aVtodok
p2723
aVmigori
p2724
aVarich
p2725
aVnyaurundi
p2726
aVwiya
p2727
aVanbe
p2728
aVnyabera
p2729
aVsaff
p2730
aVsamy
p2731
aVjakoyo
p2732
aVisack
p2733
aVodhimbo
p2734
aVmasawa
p2735
aVstruggling
p2736
aVorindo
p2737
aVmane
p2738
aVoimore
p2739
aVfinish
p2740
aVidong
p2741
aVdriver
p2742
aVnaphtali
p2743
aVkogola
p2744
aVmisambi
p2745
aVchemest
p2746
aVawuoro
p2747
aVkaan
p2748
aVjakakamega
p2749
aVcolins
p2750
aVoching
p2751
aV6hrs
p2752
aVgibed
p2753
aVnjoga
p2754
aVhaina
p2755
aVorawo
p2756
aVkawan
p2757
aVpache
p2758
aVimbo
p2759
aVtoby
p2760
aVosiany
p2761
aVrest
p2762
aVngos
p2763
aVschools
p2764
aVkill
p2765
aVmoneg
p2766
aVokawkura
p2767
aVosiano
p2768
aVdeath
p2769
aVngado
p2770
aVrose
p2771
aVadhis
p2772
aVtin
p2773
aVotieko
p2774
aVkachieng
p2775
aVpile
p2776
aVrosy
p2777
aVombwede
p2778
aVtije
p2779
aVreal
p2780
aVdiechieng
p2781
aVkinga
p2782
aVkills
p2783
aVmos
p2784
aVoffence
p2785
aVgedion
p2786
aVmou
p2787
aVearly
p2788
aVkawuono
p2789
aVcaro
p2790
aVmon
p2791
aVmbita
p2792
aVmob
p2793
aVlady
p2794
aVcbos
p2795
aVjodolo
p2796
aVadonjo
p2797
aVpon
p2798
aVolore
p2799
aVkennedy
p2800
aVwachone
p2801
aVsinthia
p2802
aVmotegno
p2803
aVdiscarded
p2804
aVbenefit
p2805
aVogwedhi
p2806
aVduokopacho
p2807
aVreduced
p2808
aVpok
p2809
aVjoas
p2810
aVoluoch
p2811
aVkamara
p2812
aVkidhii
p2813
aVkoly
p2814
aVoloyogi
p2815
aVobongo
p2816
aVtable
p2817
aVduration
p2818
aVnyithinda
p2819
aVawinjou
p2820
aVkoli
p2821
aVnyakure
p2822
aVbenta
p2823
aVjakinyozi
p2824
aVtoti
p2825
aVtoto
p2826
aValwoch
p2827
aVbottlers
p2828
aVouta
p2829
aVtunya
p2830
aVogolo
p2831
aVmaok
p2832
aVogola
p2833
aVogole
p2834
aVmwai
p2835
aVobumba
p2836
aVkagwa
p2837
aVdispensary
p2838
aVbusiness
p2839
aVvivian
p2840
aVjagem
p2841
aVketho
p2842
aVolok
p2843
aVjambaka
p2844
aVomato
p2845
aVwikimos
p2846
aVolos
p2847
aVpastors
p2848
aVobach
p2849
aVawino
p2850
aVanywola
p2851
aVfrancis
p2852
aVadongo
p2853
aVasai
p2854
aVnyithindogo
p2855
aVdhiye
p2856
aVyuora
p2857
aVwadew
p2858
aVack
p2859
aVsherly
p2860
aVmamit
p2861
aVchon
p2862
aVobeyi
p2863
aVeskul
p2864
aVrevent
p2865
aVwest
p2866
aVmixed
p2867
aVgodjope
p2868
aVtaras
p2869
aVstano
p2870
aValeme
p2871
aVongili
p2872
aVbitty
p2873
aVhooot
p2874
aVkipandego
p2875
aVwadu
p2876
aVfwane
p2877
aVcharly
p2878
aVnikanyo
p2879
aVmoris
p2880
aVkibos
p2881
aVagody
p2882
aVkolly
p2883
aVlok
p2884
aVthere
p2885
aVnyang
p2886
aVbshp
p2887
aVkondele
p2888
aVawacho
p2889
aVbude
p2890
aVudwa
p2891
aVdayana
p2892
aVmajengo
p2893
aVbunde
p2894
aVaoko
p2895
aVaherou
p2896
aVkahike
p2897
aVmiyaa
p2898
aVongalo
p2899
aVcolince
p2900
aVatimo
p2901
aVdavy
p2902
aVjadudi
p2903
aVmidega
p2904
aVwito
p2905
aVwazz
p2906
aVongele
p2907
aVagrey
p2908
aVojuok
p2909
aVlukio
p2910
aVifear
p2911
aVsalome
p2912
aV25yrs
p2913
aVokungu
p2914
aVotumba
p2915
aVolwongne
p2916
aVotudre
p2917
aVage
p2918
aVcare
p2919
aVmunda
p2920
aVgone
p2921
aVgumbo
p2922
aVmamiyo
p2923
aVarianda
p2924
aVcbo
p2925
aVtshirt
p2926
aVmarach
p2927
aVnera
p2928
aVpolitics
p2929
aVsiaya
p2930
aVbishop
p2931
aVjopeng
p2932
aVyoo
p2933
aVmanotimre
p2934
aVyom
p2935
aVmanyien
p2936
aVjakakmenga
p2937
aVyogo
p2938
aVjakanyaluo
p2939
aVoyawre
p2940
aVav2
p2941
aVyou
p2942
aVowade
p2943
aVdenoh
p2944
aVcolly
p2945
aVowada
p2946
aVpoor
p2947
aVsiprose
p2948
aVabuki
p2949
aVogutu
p2950
aVtyras
p2951
aValbat
p2952
aVjatisat
p2953
aVchris
p2954
aVchwade
p2955
aVabwao
p2956
aVketnaa
p2957
aVngwono
p2958
aVbooked
p2959
aVywore
p2960
aVcheme
p2961
aVmatiyo
p2962
aVadak
p2963
aVmass
p2964
aVnelson
p2965
aVbongisa
p2966
aVoriginal
p2967
aVmasy
p2968
aVadag
p2969
aVdisp
p2970
aValo
p2971
aVall
p2972
aVsch
p2973
aVjawuo
p2974
aVinungo
p2975
aVemili
p2976
aVdotcom
p2977
aVamosogite
p2978
aVkatena
p2979
aVjopiny
p2980
aVjariyo
p2981
aVfollow
p2982
aVnanga
p2983
aVsuna
p2984
aVptr
p2985
aVemily
p2986
aVlweta
p2987
aVwikimosh
p2988
aVjauriri
p2989
aVmadodhi
p2990
aVesiasa
p2991
aVelias
p2992
aVjenga
p2993
aVosiepena
p2994
aVnyachieo
p2995
aVmandela
p2996
aVototo
p2997
aVyien
p2998
aVjakabuya
p2999
aVvery
p3000
aVowiti
p3001
aVrading
p3002
aVsony
p3003
aVrwakna
p3004
aVberryl
p3005
aVsteve
p3006
aVgruba
p3007
aVochung
p3008
aVchupa
p3009
aVlarge
p3010
aVagak
p3011
aVkondo
p3012
aVduya
p3013
aVkabudho
p3014
aVjakaleo
p3015
aVharry
p3016
aVanan
p3017
aVsano
p3018
aVkonda
p3019
aVsabun
p3020
aVsani
p3021
aVjael
p3022
aVtek
p3023
aVchemelil
p3024
aVtee
p3025
aVzero
p3026
aVngeso
p3027
aVrata
p3028
aVlavolavo
p3029
aVmabele
p3030
aVndede
p3031
aVobala
p3032
aVodego
p3033
aVchege
p3034
aVwhat
p3035
aVwaland
p3036
aVrichard
p3037
aVoiro
p3038
aVnigiwuog
p3039
aVenambana
p3040
aVchali
p3041
aVabunga
p3042
aVkitere
p3043
aVchiwo
p3044
aVjaoda
p3045
aVaila
p3046
aVjaode
p3047
aVkabondo
p3048
aVkamica
p3049
aVaruako
p3050
aVneno
p3051
aVfull
p3052
aVwacho
p3053
aVobara
p3054
aVnyangen
p3055
aVnene
p3056
aVnyathiwa
p3057
aVjonam
p3058
aVloose
p3059
aVwellwishers
p3060
aVndiga
p3061
aVmboya
p3062
aVjato
p3063
aV1amasiro
p3064
aVhawimaber
p3065
aVeschool
p3066
aVopaso
p3067
aVfred
p3068
aVtagabi
p3069
aVolasy
p3070
aVlomg
p3071
aVakuru
p3072
aVndogo
p3073
aVjatanga
p3074
aVabala
p3075
aVnarrow
p3076
aVnguonomar
p3077
aVkadogo
p3078
aVougo
p3079
aVkacha
p3080
aVmilenye
p3081
aVafrica
p3082
aVvio
p3083
aVdanga
p3084
aVsimba
p3085
aVmicheol
p3086
aVmosmaga
p3087
aVsilva
p3088
aVeye
p3089
aVpamipami
p3090
aVeyo
p3091
aVkatito
p3092
aVmuhanda
p3093
aVrafy
p3094
aVmoro
p3095
aVmora
p3096
aVodogi
p3097
aVogonda
p3098
aVmore
p3099
aVadera
p3100
aVogeta
p3101
aVaize
p3102
aVbrighto
p3103
aVogwanjo
p3104
aVkawino
p3105
aVhurry
p3106
aVwadhi
p3107
aVfredy
p3108
aVtuak
p3109
aVnono
p3110
aVkuongi
p3111
aVndiii
p3112
aVokaka
p3113
aVdev
p3114
aVmalo
p3115
aVsinyolo
p3116
aVdel
p3117
aVnind
p3118
aVatari
p3119
aVlearn
p3120
aVnason
p3121
aVamolo
p3122
aVkech
p3123
aVoswe
p3124
aVann
p3125
aVjiowuog
p3126
aVakech
p3127
aVemilly
p3128
aVmzee
p3129
aVoywer
p3130
aVnyabondo
p3131
aVanswer
p3132
aVatang
p3133
aVano
p3134
aVjaduka
p3135
aVarambe
p3136
aVmaratipo
p3137
aVagogo
p3138
aVlavo
p3139
aVplant
p3140
aVigni
p3141
aVlina
p3142
aVwinie
p3143
aVsabina
p3144
aVokaw
p3145
aVbenyamin
p3146
aVmatugorome
p3147
aVombedo
p3148
aVopong
p3149
aVokal
p3150
aVokao
p3151
aVyudotuo
p3152
aVlimpopo
p3153
aVokwarona
p3154
aVnyalwak
p3155
aVjadwuongna
p3156
aVsusan
p3157
aVjaugenya
p3158
aVgrandy
p3159
aVregister
p3160
aVbugs
p3161
aVtomaoes
p3162
aVmigwena
p3163
aVrutek
p3164
aVabich
p3165
aVsama
p3166
aVhelp
p3167
aVav1an
p3168
aVthrough
p3169
aVotiya
p3170
aVmartich
p3171
aVnyakeyo
p3172
aVisaiah
p3173
aVasedonjo
p3174
aVnyarkajulu
p3175
aVawouro
p3176
aVarwako
p3177
aVjokinda
p3178
aVlate
p3179
aVresort
p3180
aVgitiyo
p3181
aVomwadho
p3182
aVfwanane
p3183
aVpenj
p3184
aVkapiyo
p3185
aVodip
p3186
aVgood
p3187
aVdibas
p3188
aVmaler
p3189
aVuono
p3190
aVmatibe
p3191
aVolivia
p3192
aVokonye
p3193
aVcompound
p3194
aVokimi
p3195
aVorodi
p3196
aVrombo
p3197
aVosiepna
p3198
aV20nambana
p3199
aVkanyingoro
p3200
aVjakimda
p3201
aVranen
p3202
aVachiel
p3203
aVodinga
p3204
aVdik
p3205
aVbless
p3206
aVeva
p3207
aVsoyo
p3208
aVheavy
p3209
aVosako
p3210
aVmagi
p3211
aVhouse
p3212
aVhard
p3213
aVokuma
p3214
aVokdwar
p3215
aVbende
p3216
aVbabawa
p3217
aVblues
p3218
aVhatari
p3219
aVleave
p3220
aVevy
p3221
aVrobert
p3222
aValphonce
p3223
aVasayi
p3224
aVmisiara
p3225
aVhealth
p3226
aVokawinjo
p3227
aVrabango
p3228
aVoccurs
p3229
aVjaplastic
p3230
aVcorporal
p3231
aVnyaranga
p3232
aVvioj
p3233
aVlawrence
p3234
aVjusukuma
p3235
aVase
p3236
aVkachiel
p3237
aVodoyo
p3238
aVtomoloyo
p3239
aVnyaurudi
p3240
aVmogoyo
p3241
aVokinyo
p3242
aVmalari
p3243
aVoyang
p3244
aVkambudi
p3245
aVnyaseme
p3246
aVfruit
p3247
aVmadara
p3248
aVbenja
p3249
aVshikuku
p3250
aVding
p3251
aVopiyo
p3252
aVtedo
p3253
aVmise
p3254
aVnumber
p3255
aVtibole
p3256
aVelder
p3257
aVwalok
p3258
aVjogo
p3259
aVbiuti
p3260
aVjoga
p3261
aVlewni
p3262
aVmamy
p3263
aVjep
p3264
aVkajos
p3265
aVkoa
p3266
aVyongo
p3267
aVmaleria
p3268
aVjey
p3269
aVkod
p3270
aVaa5
p3271
aVaa4
p3272
aVpakna
p3273
aVaa2
p3274
aVmama
p3275
aVogeda
p3276
aVraila
p3277
aVjosega
p3278
aVselline
p3279
aVmagunga
p3280
aVbudeboon
p3281
aVaa3
p3282
aVnedendi
p3283
aVpodniepach
p3284
aVkitumbe
p3285
aVhotel
p3286
aVoyaore
p3287
aVolweny
p3288
aVminena
p3289
aVawilo
p3290
aVakaw
p3291
aVashley
p3292
aVodede
p3293
aVgrace
p3294
aVndege
p3295
aVobama
p3296
aVstd
p3297
aVguok
p3298
aVesamachon
p3299
aVkindly
p3300
aVanindo
p3301
aVochiew
p3302
aVyouth
p3303
aVonam
p3304
aVkapok
p3305
aVmarriage
p3306
aVdani
p3307
aVpenina
p3308
aVkarow
p3309
aVopukore
p3310
aVmongee
p3311
aVdana
p3312
aVkiny
p3313
aVchagaik
p3314
aVongong
p3315
aVwasonga
p3316
aVsikuma
p3317
aVowenindo
p3318
aVurgently
p3319
aVphilli
p3320
aVapery
p3321
aVagen
p3322
aVmusalapi
p3323
aVkaro
p3324
aVnyongo
p3325
aVatm
p3326
aVcheck
p3327
aVrukia
p3328
aVofficers
p3329
aVode
p3330
aVlit
p3331
aVefi
p3332
aVlis
p3333
aVchapchap
p3334
aVliz
p3335
aVdemna
p3336
aVkasongo
p3337
aVkaa
p3338
aVpulot
p3339
aVkae
p3340
aVamam
p3341
aVmoso
p3342
aVndhulu
p3343
aVkan
p3344
aVnyachiawo
p3345
aVkar
p3346
aVkaw
p3347
aVondoro
p3348
aVoderootumba
p3349
aVnitie
p3350
aVyawa
p3351
aVkoker
p3352
aVchwogi
p3353
aVgemkaumara
p3354
aVjadonat
p3355
aVgaby
p3356
aVnyasachi
p3357
aVkiboswa
p3358
aVancaro
p3359
aVkochunyno
p3360
aVmaketgi
p3361
aVaakala
p3362
aVnyasache
p3363
aVbeldine
p3364
aVthomas
p3365
aVwakili
p3366
aVjehova
p3367
aVgim
p3368
aVgolo
p3369
aViweye
p3370
aVochuo
p3371
aVodhi
p3372
aVtinde
p3373
aVseuen
p3374
aVolang
p3375
aVmoseh
p3376
aVasoro
p3377
aVjohera
p3378
aVrawo
p3379
aVjainungo
p3380
aVuriyo
p3381
aVongoro
p3382
aVequity
p3383
aVodipo
p3384
aVmoses
p3385
aVnambanano
p3386
aVmabiro
p3387
aVnam
p3388
aVcholera
p3389
aVkibuye
p3390
aVtrees
p3391
aVomwandho
p3392
aVsila
p3393
aVbasement
p3394
aVhik
p3395
aVjagorofa
p3396
aVfama
p3397
aVomollo
p3398
aValoke
p3399
aVmrefu
p3400
aVomolla
p3401
aVnyakarabondi
p3402
aValoko
p3403
aVnijitwika
p3404
aVnyagoro
p3405
aVomolo
p3406
aVvincent
p3407
aVkokara
p3408
aVnyakongo
p3409
aVset
p3410
aVjakibugu
p3411
aVanyango
p3412
aV4lowing
p3413
aVpodotin
p3414
aVjolony
p3415
aVtiyore
p3416
aVsipi
p3417
aVyalla
p3418
aVsamatin
p3419
aVmanywanda
p3420
aVsec
p3421
aVare
p3422
aVmatin
p3423
aVbaro
p3424
aVilaro
p3425
aVabongo
p3426
aVkwuamundhi
p3427
aVawinji
p3428
aVpisi
p3429
aVmasafa
p3430
aVdebas
p3431
aValokie
p3432
aVasally
p3433
aVafwayone
p3434
aVsababu
p3435
aVkuom
p3436
aVnyathigi
p3437
aVnosigi
p3438
aVrite
p3439
aVtransfered
p3440
aVnyiri
p3441
aVmiganda
p3442
aVcolliy
p3443
aVjagongo
p3444
aVkanyuol
p3445
aVgagra
p3446
aVericah
p3447
aVpesapesa
p3448
aVpami
p3449
aVachola
p3450
aVjasuna
p3451
aVlast
p3452
aVadipo
p3453
aVdomnick
p3454
aVsadam
p3455
aVasedonje
p3456
aVepiny
p3457
aVopak
p3458
aVnyoracha
p3459
aVitamor
p3460
aVthoo
p3461
aVmegs
p3462
aVrisper
p3463
aValot
p3464
aVomosh
p3465
aVlasi
p3466
aVrodgers
p3467
aVogweno
p3468
aVkodele
p3469
aVkwuom
p3470
aVollo
p3471
aVjeff
p3472
aVreasons
p3473
aVjokamien
p3474
aVjang
p3475
aVrosa
p3476
aVgitimatek
p3477
aVchurch
p3478
aVoliech
p3479
aVeabila
p3480
aVakuna
p3481
aVjairo
p3482
aVroslida
p3483
aVjavo
p3484
aVunderage
p3485
aVdue
p3486
aVdamu
p3487
aVochido
p3488
aVinear
p3489
aVdut
p3490
aVwalter
p3491
aVokulo
p3492
aVbenardo
p3493
aVram
p3494
aVmajaigni
p3495
aVfire
p3496
aVmind
p3497
aVomiyo
p3498
aVmine
p3499
aVochoro
p3500
aVkapuoyo
p3501
aViddy
p3502
aVtogi
p3503
aVjakowich
p3504
aVhigni
p3505
aVogingadan
p3506
aVcllr
p3507
aVogendo
p3508
aViya
p3509
aVoluonch
p3510
aVmoluor
p3511
aViyo
p3512
aVleya
p3513
aVogenda
p3514
aVgovernor
p3515
aVchiga
p3516
aVadmire
p3517
aVjokambudi
p3518
aVabor
p3519
aVusiku
p3520
aVaidha
p3521
aVatobi
p3522
aVosal
p3523
aVvoters
p3524
aVjiariyo
p3525
aVmandor
p3526
aVrit
p3527
aVris
p3528
aVgima
p3529
aVyath
p3530
aVkwayona
p3531
aVaudo
p3532
aVagingu
p3533
aVewi
p3534
aVoywa
p3535
aVshirt
p3536
aVjaberna
p3537
aVoloko
p3538
aVajwala
p3539
aVjanguare
p3540
aVhomabay
p3541
aVodiero
p3542
aValuoch
p3543
aVodeka
p3544
aVsammy
p3545
aVruth
p3546
aVnaogopa
p3547
aVsham
p3548
aVingeng
p3549
aV891
p3550
aVbon
p3551
aVobia
p3552
aVokando
p3553
aVscopion
p3554
aVcleaning
p3555
aValogo
p3556
aVkabisa
p3557
aVlower
p3558
aVkambi
p3559
aVyudo
p3560
aVmourine
p3561
aVnyocha
p3562
aVopenda
p3563
aVnyocho
p3564
aVoguche
p3565
aVknd
p3566
aVmoi
p3567
aVsango
p3568
aVsakari
p3569
aVlambwe
p3570
aVjnr
p3571
aVnichezee
p3572
aVmariwa
p3573
aVmanasse
p3574
aVgiwiye
p3575
aVevarlyne
p3576
aVjokaneya
p3577
aVjoteneduto
p3578
aVgona
p3579
aVotealuoch
p3580
aVafro
p3581
aVthieth
p3582
aVdwokna
p3583
aVouko
p3584
aVmandas
p3585
aVmavo
p3586
aVmarrying
p3587
aVowawa
p3588
aVkasagam
p3589
aVkamano
p3590
aVbarack
p3591
aVtaban
p3592
aVomenda
p3593
aVparents
p3594
aVkanitie
p3595
aVnyathikich
p3596
aVodeyo
p3597
aVmburu
p3598
aVjagangre
p3599
aVodhiadhia
p3600
aVmbura
p3601
aVodich
p3602
aVkageno
p3603
aVmarcy
p3604
aVjanyuol
p3605
aVsemo
p3606
aVbabela
p3607
aVmakokina
p3608
aVngato
p3609
aVseme
p3610
aVvipe
p3611
aVekara
p3612
aVochakogo
p3613
aVmirefu
p3614
aVarthur
p3615
aVivan
p3616
aVnairobi
p3617
aVondege
p3618
aVmose
p3619
aVkosemaki
p3620
aVoteen
p3621
aVmawere
p3622
aVmakabongo
p3623
aVmageta
p3624
aVsomb
p3625
aVsome
p3626
aVmawero
p3627
aVestage
p3628
aVahero
p3629
aVjakamera
p3630
aVpala
p3631
aVjogi
p3632
aVkonsaga
p3633
aVmajango
p3634
aVoweyo
p3635
aVemakelo
p3636
aVojoo
p3637
aVoweye
p3638
aVruothgi
p3639
aVochopne
p3640
aVmitira
p3641
aVboka
p3642
aVbidii
p3643
aVkanjira
p3644
aVanna
p3645
aVmasogo
p3646
aVsixteen
p3647
aVwithur
p3648
aVotimodend
p3649
aVombei
p3650
aVmayach
p3651
aVmosi
p3652
aVnyasiaya
p3653
aVnelly
p3654
aVombey
p3655
aVnyakarabundi
p3656
aVtaboo
p3657
aVayiegi
p3658
aVodog
p3659
aVfaith
p3660
aVkaen
p3661
aVkoni
p3662
aVombehi
p3663
aVokumbe
p3664
aVhasan
p3665
aVfurut
p3666
aVbabana
p3667
aVidi
p3668
aVgiduto
p3669
aVexperince
p3670
aVadumai
p3671
aVtairas
p3672
aVida
p3673
aVajulo
p3674
aVjohny
p3675
aVoniang
p3676
aVinto
p3677
aVwithin
p3678
aVinspecta
p3679
aVatwan
p3680
aVogada
p3681
aVongielo
p3682
aVokonegore
p3683
aVatimokinda
p3684
aVakuwayo
p3685
aVanyal
p3686
aVneko
p3687
aVchenro
p3688
aVbe4
p3689
aVbruz
p3690
aVopenj
p3691
aVlong
p3692
aVlony
p3693
aVmkt
p3694
aVsuit
p3695
aVokwacha
p3696
aVsinai
p3697
aVboya
p3698
aVsinogo
p3699
aVmakatajokafiri
p3700
aVboyo
p3701
aVchumbe
p3702
aVjacky
p3703
aVngolo
p3704
aVngeny
p3705
aVline
p3706
aVjunior
p3707
aVreen
p3708
aVcliment
p3709
aVuta
p3710
aVerick
p3711
aVmalit
p3712
aVgerliech
p3713
aVopondi
p3714
aVjamnazi
p3715
aVpolitic
p3716
aVmogik
p3717
aVnyithindo
p3718
aVmature
p3719
aVkunga
p3720
aVoduor
p3721
aVuhanya
p3722
aVmarkajulu
p3723
aVlastborn
p3724
aVjamuhanda
p3725
aVokanga
p3726
aVgimiwacho
p3727
aVomena
p3728
aVnyathina
p3729
aVichako
p3730
aVsingle
p3731
aVcure
p3732
aVnwona
p3733
aVfroot
p3734
aVmamwa
p3735
aV0702715175
p3736
aVoyula
p3737
aVkombe
p3738
aVtijena
p3739
aVtito
p3740
aVnai
p3741
aVtijeni
p3742
aVafamer
p3743
aVberyl
p3744
aVkamae
p3745
aVdepartment
p3746
aVkamam
p3747
aVnice
p3748
aVdakika
p3749
aVdala
p3750
aVwyckliffe
p3751
aVnaftal
p3752
aVenterprise
p3753
aVproblems
p3754
aVkora
p3755
aVakumu
p3756
aVbeshte
p3757
aVjopin
p3758
aVrambira
p3759
aVokanyal
p3760
aVmomiyo
p3761
aVleny
p3762
aVolale
p3763
aVago
p3764
aVmalandre
p3765
aValugah
p3766
aVomona
p3767
aVchemosit
p3768
aVnyikech
p3769
aVenmar
p3770
aVfresh
p3771
aVwende
p3772
aVwatim
p3773
aVakeyo
p3774
aVamisi
p3775
aVkanam
p3776
aVcynthia
p3777
aVmudho
p3778
aVjimo
p3779
aVjakomenya
p3780
aVkata
p3781
aVnyoro
p3782
aVedy
p3783
aVombeyi
p3784
aVadmited
p3785
aVjunia
p3786
aVmigi
p3787
aVongus
p3788
aVyoung
p3789
aVmangeny
p3790
aVsadhuru
p3791
aVnyawara
p3792
aVkanedhi
p3793
aVmeya
p3794
aVponge
p3795
aVjakob
p3796
aVasuma
p3797
aVfond
p3798
aVjagweno
p3799
aVepuodho
p3800
aVgina
p3801
aVragalo
p3802
aVjakom
p3803
aVkogno
p3804
aVkarota
p3805
aVjokanyaluo
p3806
aVclement
p3807
aVedwin
p3808
aVtang
p3809
aVjarodi
p3810
aVjoel
p3811
aVbabwa
p3812
aVolal
p3813
aVolam
p3814
aVaswa
p3815
aVjafres
p3816
aVimoso
p3817
aVkobiero
p3818
aVnbange
p3819
aVwandasi
p3820
aVrach
p3821
aVkaliech
p3822
aVjuma
p3823
aValango
p3824
aVkidogo
p3825
aVmbili
p3826
aVorot
p3827
aVkakelo
p3828
aVjaurunda
p3829
aVchomo
p3830
aVoalo
p3831
aVodm
p3832
aVothiedhe
p3833
aVooro
p3834
aVoda
p3835
aVrrr
p3836
aVvictor
p3837
aVpoul
p3838
aVokello
p3839
aVpower
p3840
aVanton
p3841
aVfadhe
p3842
aVeyor
p3843
aVodemba
p3844
aVkorua
p3845
aVbiro
p3846
aVdaraja
p3847
aVlize
p3848
aVnicholas
p3849
aVbody
p3850
aVlutheran
p3851
aVjaklamo
p3852
aViketna
p3853
aVlem
p3854
aVleo
p3855
aVbodi
p3856
aVfollowing
p3857
aVler
p3858
aVles
p3859
aVlet
p3860
aVbodo
p3861
aVoloo
p3862
aVmasinde
p3863
aVnyanango
p3864
aVgreat
p3865
aVonyoso
p3866
aVpheny
p3867
aVndani
p3868
aVdioces
p3869
aVduncan
p3870
aVcalvin
p3871
aVdongruok
p3872
aVmicah
p3873
aVnyadulo
p3874
aVonyango
p3875
aVgeng
p3876
aValois
p3877
aVfiyar
p3878
aVsheila
p3879
aVsiasa
p3880
aVpresidents
p3881
aVwil
p3882
aVmatieko
p3883
aVraul
p3884
aVjacha
p3885
aVgimoro
p3886
aVadhaya
p3887
aVasan
p3888
aVnyamori
p3889
aVjauma
p3890
aVasam
p3891
aVvipi
p3892
aVokana
p3893
aVochar
p3894
aVfrom
p3895
aVjokama
p3896
aVawinj
p3897
aVoruko
p3898
aVgimary
p3899
aVasahi
p3900
aVbaba
p3901
aVpuonje
p3902
aVisak
p3903
aVyelow
p3904
aVirito
p3905
aVotho
p3906
aVkiost
p3907
aVkodero
p3908
aVawillo
p3909
aVnilikuomba
p3910
aVbaby
p3911
aVabebo
p3912
aVorono
p3913
aVlavatsa
p3914
aVkanyimach
p3915
aVjakadem
p3916
aVsalad
p3917
aVjipanoran
p3918
aVthis
p3919
aVmabor
p3920
aVopog
p3921
aVmamawa
p3922
aVkakajey
p3923
aVmadwaro
p3924
aVthim
p3925
aVchrch
p3926
aVonguon
p3927
aVjarech
p3928
aVkoso
p3929
aVtau
p3930
aVgirito
p3931
aVongei
p3932
aVjen
p3933
aVdaki
p3934
aVhigh
p3935
aVongeyi
p3936
aVsomething
p3937
aVmilicent
p3938
aVoracho
p3939
aVchoo
p3940
aVkenna
p3941
aVdomnik
p3942
aVminya
p3943
aVphelix
p3944
aVnyiminena
p3945
aVdomnic
p3946
aVoyieyo
p3947
aVmakawudo
p3948
aVberrel
p3949
aVgwara
p3950
aVdwa
p3951
aVsin
p3952
aV0717
p3953
aVkobudho
p3954
aVokiri
p3955
aVkenedi
p3956
aVmamin
p3957
aVoyaya
p3958
aVbagdal
p3959
aViren
p3960
aVnyangao
p3961
aVofunmlia
p3962
aVkenyans
p3963
aVbursary
p3964
aVanyuongi
p3965
aVnejo
p3966
aVrealized
p3967
aVagwingi
p3968
aVwiu
p3969
aVlinet
p3970
aVmartine
p3971
aVchief
p3972
aVwayasi
p3973
aVroad
p3974
aVnancy
p3975
aVchiem
p3976
aVchien
p3977
aVotieno
p3978
aVonywera
p3979
aVivone
p3980
aVaturo
p3981
aVnyamera
p3982
aVnyause
p3983
aVanankaankiwa
p3984
aVoginga
p3985
aVeruoth
p3986
aVwarren
p3987
aVkasure
p3988
aVsalim
p3989
aVbrian
p3990
aVdimba
p3991
aVranguma
p3992
aVnyahera
p3993
aVanotis
p3994
aVosalla
p3995
aVorange
p3996
aVobola
p3997
aVimora
p3998
aV2012
p3999
aVdad
p4000
aVnadi
p4001
aVjunction
p4002
aVkorwenje
p4003
aVwichlum
p4004
aVgimoni
p4005
aVdan
p4006
aVoranges
p4007
aVdak
p4008
aVonyaloko
p4009
aVdav
p4010
aVfia
p4011
aVema
p4012
aVday
p4013
aVsamoro
p4014
aVjomabeyo
p4015
aVmagrate
p4016
aVjapuonj
p4017
aVnyundo
p4018
aVuniversity
p4019
aVakulo
p4020
aVawage
p4021
aVbilly
p4022
aVadienge
p4023
aVbacho
p4024
aVbetty
p4025
aVnikare
p4026
aVkericho
p4027
aVrayo
p4028
aVsande
p4029
aVnyisi
p4030
aVweyi
p4031
aVjackob
p4032
aVsociety
p4033
aVdorca
p4034
aVionge
p4035
aVous
p4036
aVour
p4037
aVout
p4038
aVwawinji
p4039
aVlolwd
p4040
aVwakonye
p4041
aVouma
p4042
aVrev
p4043
aVankephas
p4044
aVkinyozi
p4045
aVkamlambo
p4046
aVvct
p4047
aVwer
p4048
aVwich
p4049
aVcause
p4050
aVmati
p4051
aVunda
p4052
aVecd
p4053
aVwach
p4054
aVmolly
p4055
aVgreedy
p4056
aViebc
p4057
aVaviko
p4058
aVguya
p4059
aVnyamrerwa
p4060
aVphilip
p4061
aVsunsiro
p4062
aVtach
p4063
aVdays
p4064
aVher
p4065
aVchilla
p4066
aVbeatrece
p4067
aVdichwo
p4068
aVelector
p4069
aVivon
p4070
aVkanyolingo
p4071
aVkanyathi
p4072
aVhence
p4073
aVnyawasi
p4074
aVlinnet
p4075
aVsouth
p4076
aVkulalane
p4077
aVevans
p4078
aVmaromo
p4079
aVsack
p4080
aVtairus
p4081
aVbudho
p4082
aVkadiemo
p4083
aVnyathi
p4084
aVboza
p4085
aVmaurice
p4086
aVjaoko
p4087
aVmachwogi
p4088
aVapelly
p4089
aVkoturo
p4090
aVfinal
p4091
aVnyakach
p4092
aVnyal
p4093
aVatoti
p4094
aVlot
p4095
aVouya
p4096
aVnyak
p4097
aVoriang
p4098
aVawidow
p4099
aVnyaa
p4100
aVhecheki
p4101
aVkansila
p4102
aVmanyakelo
p4103
aVanene
p4104
aVudi
p4105
aVoga
p4106
aVnyar
p4107
aVamosou
p4108
aVyrs
p4109
aVben
p4110
aVnegowa
p4111
aVbed
p4112
aVojwang
p4113
aVnigiwinjo
p4114
aVber
p4115
aVbeuty
p4116
aVrfsl
p4117
aVdheks
p4118
aVkosomo
p4119
aVtabu
p4120
aVodhiambo
p4121
aVmathayo
p4122
aVuganda
p4123
aVnorth
p4124
aVtido
p4125
aVjadu
p4126
aVmanane
p4127
aVatic
p4128
aVisaka
p4129
aVmilly
p4130
aVmakaudo
p4131
aVmia
p4132
aVlilo
p4133
aVlili
p4134
aVmig
p4135
aVatis
p4136
aVakach
p4137
aVwhich
p4138
aVmargy
p4139
aVlinda
p4140
aVmit
p4141
aVngano
p4142
aVjonyakongo
p4143
aVjasukari
p4144
aVemly
p4145
aVadier
p4146
aVchiro
p4147
aVcentre
p4148
aVawendo
p4149
aVtahifa
p4150
aVmaurine
p4151
aVawinjo
p4152
aVwht
p4153
aVkamagambo
p4154
aVsinyanya
p4155
aVoyamo
p4156
aVkulala
p4157
aVkamodi
p4158
aVsally
p4159
aVwhy
p4160
aVjamawira
p4161
aVolwenya
p4162
aVfier
p4163
aV0dhare
p4164
aVoduma
p4165
aVfundi
p4166
aVochillo
p4167
aVahinya
p4168
aVappostle
p4169
aVkendu
p4170
aVrambara
p4171
aV0707
p4172
aVsansiro
p4173
aVbrenda
p4174
aVkweli
p4175
aVdorothi
p4176
aVcharles
p4177
aVomela
p4178
aVmiyo
p4179
aVbring
p4180
aVmiwa
p4181
aVjomamosago
p4182
aVndikruok
p4183
aVgori
p4184
aVawinjie
p4185
aVtarik
p4186
aVstaff
p4187
aVelly
p4188
aVusenge
p4189
aVsiany
p4190
aVndilo
p4191
aVtire
p4192
aVwith
p4193
aVshould
p4194
aVeduwin
p4195
aVplanted
p4196
aVcandidates
p4197
aVjak
p4198
aVmuga
p4199
aVksm
p4200
aVnyakojula
p4201
aVkantie
p4202
aVlocal
p4203
aVhope
p4204
aVjaber
p4205
aVgodiochieng
p4206
aVjafrut
p4207
aVmageno
p4208
aVbediie
p4209
aVemasani
p4210
aVkadete
p4211
aVmolem
p4212
aVketna
p4213
aVbondo
p4214
aVanandi
p4215
aVjaso
p4216
aVlalo
p4217
aVmapenzi
p4218
aVwetena
p4219
aVmarried
p4220
aVwamor
p4221
aVshe
p4222
aVopande
p4223
aVjayala
p4224
aVamoyo
p4225
aVnamlolwe
p4226
aVjatelo
p4227
aVwanyama
p4228
aVaduera
p4229
aVngima
p4230
aVmawinjo
p4231
aVodong
p4232
aVjiranda
p4233
aVsospeter
p4234
aVmiek
p4235
aVapenjo
p4236
aVeofis
p4237
aVabudho
p4238
aVtene
p4239
aVogodo
p4240
aVtokod
p4241
aVusigu
p4242
aVebudho
p4243
aVayieye
p4244
aVruoth
p4245
aVtimbe
p4246
aVemail
p4247
aVdirty
p4248
aVken
p4249
aVjanes
p4250
aVkel
p4251
aVjanet
p4252
aVjoy
p4253
aVmelda
p4254
aViriyo
p4255
aVauko
p4256
aVbudebun
p4257
aVjaneopiyo
p4258
aVmerry
p4259
aVjasega
p4260
aVjoj
p4261
aVket
p4262
aVachiedh
p4263
aVdavid
p4264
aVodeny
p4265
aVjoko
p4266
aVkatedo
p4267
aV23yrs
p4268
aVakwa
p4269
aVyongoh
p4270
aVkapkatet
p4271
aVayiego
p4272
aVjoka
p4273
aVnyare
p4274
aVmaseno
p4275
aVetc
p4276
aVramo
p4277
aViwuok
p4278
aVwear
p4279
aVmopong
p4280
aVjamhuri
p4281
aVonyuera
p4282
aVkingi
p4283
aVgita
p4284
aVmaliet
p4285
aVnyarosiri
p4286
aVdosila
p4287
aVsoweto
p4288
aVkamrongo
p4289
aVminevon
p4290
aVincest
p4291
aVoria
p4292
aVjohana
p4293
aVmadanje
p4294
aVwilly
p4295
aVtieng
p4296
aVrumo
p4297
aVcatherin
p4298
aVondijo
p4299
aVsilvia
p4300
aVsara
p4301
aVcommissoner
p4302
aVjotelo
p4303
aVyan
p4304
aVjabando
p4305
aVemmaculet
p4306
aVlavenda
p4307
aVondeto
p4308
aVoti
p4309
aVwatiuru
p4310
aVjiduto
p4311
aVmika
p4312
aVjatshirt
p4313
aVote
p4314
aVchuor
p4315
aVogilo
p4316
aVlavester
p4317
aVmamagi
p4318
aVkimari
p4319
aVdedem
p4320
aVchaly
p4321
aVoliewo
p4322
aVkanyakla
p4323
aVomondi
p4324
aVkopingo
p4325
aVkitieko
p4326
aVwill
p4327
aVataka
p4328
aVsirikal
p4329
aVosolo
p4330
aVkaponi
p4331
aVjapeng
p4332
aVnyamila
p4333
aVserre
p4334
aVmsalape
p4335
aVcoz
p4336
aVlichma
p4337
aVsiruti
p4338
aVblood
p4339
aVkeyo
p4340
aVosala
p4341
aVkaluwre
p4342
aVthum
p4343
aVttc
p4344
aVmarmamboleo
p4345
aVnyore
p4346
aVgeta
p4347
aVochop
p4348
aVjaboka
p4349
aVsadhru
p4350
aVorumo
p4351
aVdickens
p4352
aVlwero
p4353
aVmigwa
p4354
aVauonda
p4355
aVlookin
p4356
aVsuzy
p4357
aVav1
p4358
aVbala
p4359
aVmze
p4360
aVlieta
p4361
aVnade
p4362
aVodhine
p4363
aVdaudi
p4364
aVosomo
p4365
aVjaohand
p4366
aVkeep
p4367
aVjaraa
p4368
aVjapur
p4369
aVjwala
p4370
aVagotich
p4371
aVseta
p4372
aVgiwinj
p4373
aVwell
p4374
aVotaro
p4375
aVwelo
p4376
aVofwenyo
p4377
aVrispar
p4378
aVschl
p4379
aVobuongo
p4380
aVkamser
p4381
aVngware
p4382
aVdhitedo
p4383
aVnguno
p4384
aVoyaw
p4385
aVbananas
p4386
aVonde
p4387
aVhali
p4388
aValedi
p4389
aVjakabonyo
p4390
aVpaul
p4391
aVads
p4392
aVjaro
p4393
aVlwala
p4394
aVotas
p4395
aVlake
p4396
aVwel
p4397
aVpapohapo
p4398
aVwinnie
p4399
aVjaduong
p4400
aVkamago
p4401
aVsmart
p4402
aVoketi
p4403
aVodiochieng
p4404
aVadhiambo
p4405
aVmachielo
p4406
aVjanamba
p4407
aVkoyoo
p4408
aVkagan
p4409
aVokite
p4410
aVfive
p4411
aVknow
p4412
aVstanbradox
p4413
aVtich
p4414
aVjasuba
p4415
aVkagimaki
p4416
aVoteni
p4417
aVnyarerwa
p4418
aVlilian
p4419
aVemma
p4420
aVlike
p4421
aVmamboleo
p4422
aVemillymin
p4423
aVondikre
p4424
aVoluonga
p4425
aV4me
p4426
aVmartin
p4427
aVrota
p4428
aVawasi
p4429
aVbecause
p4430
aVwuodkwaru
p4431
aVokuta
p4432
aVopere
p4433
aVobado
p4434
aVvillage
p4435
aVimiya
p4436
aVoneko
p4437
aVkits
p4438
aVmiyago
p4439
aVpeter
p4440
aVjoguda
p4441
aVhappens
p4442
aVwendi
p4443
aVavoid
p4444
aVdago
p4445
aVagutu
p4446
aVifuwana
p4447
aVdoes
p4448
aVkwee
p4449
aVmigingo
p4450
aVeso
p4451
aVogolne
p4452
aVokech
p4453
aVleader
p4454
aVenuf
p4455
aVidlers
p4456
aVchally
p4457
aVokweso
p4458
aVmakendo
p4459
aVmillicent
p4460
aVdhano
p4461
aVtijenga
p4462
aVhosp
p4463
aVpasta
p4464
aVfeare
p4465
aViseruenyo
p4466
aVbigben
p4467
aVndazi
p4468
aVwadaguru
p4469
aVndi
p4470
aVsister
p4471
aVndo
p4472
aVnoyudo
p4473
aVasha
p4474
aVgidion
p4475
aVblessings
p4476
aValuore
p4477
aVmourice
p4478
aVragengni
p4479
aVobiero
p4480
aVjalamo
p4481
aVgiereru
p4482
aVkwach
p4483
aVbeen
p4484
aVregistration
p4485
aVoketho
p4486
aVochanda
p4487
aVemakoro
p4488
aVjaposhomill
p4489
aVawuonda
p4490
aVjayalo
p4491
aVwakajulu
p4492
aVwasee
p4493
aVkapuonja
p4494
aVsansir
p4495
aVogoyo
p4496
aVkanyakoo
p4497
aVfrustration
p4498
aVogoya
p4499
aVmahaya
p4500
aVondiek
p4501
aVaduoko
p4502
aVfundy
p4503
aVkanga
p4504
aVoseromo
p4505
aVbut
p4506
aVadwuoko
p4507
aVbun
p4508
aVnyaugenya
p4509
aVmargi
p4510
aVaduwa
p4511
aVdavide
p4512
aVfunde
p4513
aValso
p4514
aVdhine
p4515
aVnyakwar
p4516
aVaustin
p4517
aVwuora
p4518
aVndalo
p4519
aVwiliam
p4520
aVmwuonyo
p4521
aVjawinjo
p4522
aVcella
p4523
aVngando
p4524
aVproblem
p4525
aVjatisirt
p4526
aVmatar
p4527
aVadhiyadhiya
p4528
aVpii
p4529
aVkadawa
p4530
aVplay
p4531
aVpin
p4532
aVpio
p4533
aVorian
p4534
aVowego
p4535
aVanji
p4536
aVbeatrice
p4537
aVndheckz
p4538
aVkimwonyo
p4539
aVobunge
p4540
aVolwalo
p4541
aVisaack
p4542
aVeducation
p4543
aVcampus
p4544
aVodngo
p4545
aVnambana
p4546
aVeyamo
p4547
aVtyme
p4548
aVkokal
p4549
aVmamaval
p4550
aVother
p4551
aVmagret
p4552
aVboon
p4553
aVkanisa
p4554
aVbooker
p4555
aVolili
p4556
aVaringo
p4557
aVkindu
p4558
aVwanje
p4559
aVgitich
p4560
aVdhod
p4561
aVclass
p4562
aVsadaka
p4563
aVowich
p4564
aVmargaret
p4565
aVkinde
p4566
aVkepher
p4567
aVgwayo
p4568
aVkinda
p4569
aVmiyowa
p4570
aVfriends
p4571
aVkend
p4572
aVrich
p4573
aVkanyaluo
p4574
aVadiera
p4575
aVapuonjo
p4576
aVagood
p4577
aVjenifa
p4578
aVuriri
p4579
aVkakamega
p4580
atp4581
Rp4582
sVunknown
p4583
g2
((lp4584
tp4585
Rp4586
sVLuganda
p4587
g2
((lp4588
Vejjaga
p4589
aVbrenda
p4590
aVssempijja
p4591
aVjosephine
p4592
aVebijugo
p4593
aVlwengo
p4594
aVgange
p4595
aVkato
p4596
aVgujja
p4597
aVpaul
p4598
aVekisanje
p4599
aVbuddu
p4600
aVgayinza
p4601
aVronald
p4602
aVtewali
p4603
aVabantu
p4604
aVkibuli
p4605
aVbeekalaze
p4606
aVmasaka
p4607
aVlure
p4608
aVsamuel
p4609
aVssemugenyi
p4610
aVndabye
p4611
aVkwo
p4612
aVnyendo
p4613
aVejinja
p4614
aVyudaya
p4615
aVnanyoonga
p4616
aVfaer
p4617
aValex
p4618
aVkateregga
p4619
aVssekalo
p4620
aVkalisizo
p4621
aVmulwadde
p4622
aVtalina
p4623
aVembuto
p4624
aVkavuuze
p4625
aVbenjamin
p4626
aVomusujja
p4627
aVstanley
p4628
aVokuzala
p4629
aVbangabye
p4630
aVsedric
p4631
aVmaralia
p4632
aVtusuubira
p4633
aVmusujja
p4634
aVmugoya
p4635
aVwilly
p4636
aVkufa
p4637
aVmusisi
p4638
aVdagala
p4639
aVndagire
p4640
aVfred
p4641
aVnti
p4642
aVbwe
p4643
aVnga
p4644
aVndi
p4645
aVkaggogwa
p4646
aVrigan
p4647
aVnyinza
p4648
aVbatandika
p4649
aVbangi
p4650
aVwalusimbi
p4651
aVlwabenge
p4652
aVbijjaba
p4653
aVono
p4654
aVjuma
p4655
aVmuky
p4656
aVekampala
p4657
aVvampaya
p4658
aVbazala
p4659
aVsarah
p4660
aVfrom
p4661
aVbudu
p4662
aVmsw
p4663
aVfrm
p4664
aVmatovu
p4665
aVashiraph
p4666
aVjoseph
p4667
aVlwo
p4668
aVbafunye
p4669
aVnkyagala
p4670
aVjohn
p4671
aVdevis
p4672
aVokusasika
p4673
aVobulumi
p4674
aVemutungo
p4675
aVbakyala
p4676
aVgrace
p4677
aVbusega
p4678
aVmukirombe
p4679
aVkampala
p4680
aVavi
p4681
aVeruzira
p4682
aVbayitamu
p4683
aVnze
p4684
aVlya
p4685
aVarafat
p4686
aVphotoman
p4687
aVvinsent
p4688
aVekasenge
p4689
aVabaana
p4690
aVomuzimbi
p4691
aVtonny
p4692
aVbuwenda
p4693
aVbalamu
p4694
aVjesca
p4695
aVekibinge
p4696
aVbisaso
p4697
aVpaulo
p4698
aVnyo
p4699
aVamaka
p4700
aVjonh
p4701
aVronnie
p4702
aVyiga
p4703
aVokundowoloeza
p4704
aVav1
p4705
aVav2
p4706
aVnsaale
p4707
aVdistrict
p4708
aVmwenzi
p4709
aVkasagga
p4710
aVnjokambi
p4711
aVkuba
p4712
aVewobulenzi
p4713
aVhaluna
p4714
aVbuudu
p4715
aVkabale
p4716
atp4717
Rp4718
sVNyanja
p4719
g2
((lp4720
Vbongobongo
p4721
aVbwalya
p4722
aVsch
p4723
aVmpando
p4724
aVkufunika
p4725
aVchild
p4726
aVndaba
p4727
aVbagx
p4728
aVchipangali
p4729
aVfarms
p4730
aVmbusa
p4731
aVyilibe
p4732
aVimathesa
p4733
aVchikuwe
p4734
aVshumba
p4735
aVcaptain
p4736
aVchisi
p4737
aVchilungamo
p4738
aVcauses
p4739
aVsimon
p4740
aVchimsakasa
p4741
aVchapa
p4742
aVmopanda
p4743
aVdisposal
p4744
aVmabvuto
p4745
aVyoung
p4746
aVmuchenga
p4747
aVmseteka
p4748
aVchinyaku
p4749
aVedward
p4750
aVelias
p4751
aVkusavela
p4752
aVunder
p4753
aVsibwino
p4754
aVkapala
p4755
aV2mmorow
p4756
aVvikwati
p4757
aVesther
p4758
aVgino
p4759
aVjere
p4760
aVsalibwino
p4761
aVtizayamba
p4762
aVngakhare
p4763
aVwilfred
p4764
aVjack
p4765
aVirimbe
p4766
aVisaiah
p4767
aVndake
p4768
aVakazi
p4769
aVentire
p4770
aVschool
p4771
aVmnukwa
p4772
aVmusanga
p4773
aVmarry
p4774
aVlinaikidwa
p4775
aVjulius
p4776
aVmgubudu
p4777
aVsection
p4778
aVsmall
p4779
aVbarracks
p4780
aVilo
p4781
aVkucipatala
p4782
aVleaders
p4783
aVtioneone
p4784
aVshadreck
p4785
aVkachinga
p4786
aVento
p4787
aVmwasemphangwe
p4788
aVkambale
p4789
aVmlolo
p4790
aVstreet
p4791
aVwa15yers
p4792
aVchilumbu
p4793
aVkwenda
p4794
aVnyalazi
p4795
aVnyirenda
p4796
aVsichilisika
p4797
aVakhala
p4798
aVmpovuta
p4799
aVeducate
p4800
aVabia
p4801
aVsichedwa
p4802
aVrichard
p4803
aVeliza
p4804
aVchinkhombe
p4805
aVakatengela
p4806
aVmlodzera
p4807
aVchildren
p4808
aVndina
p4809
aVkapata
p4810
aVkacholola
p4811
aVkumwalila
p4812
aVndine
p4813
aVtitandizeka
p4814
aVnew
p4815
aVnicholas
p4816
aVdaily
p4817
aV4rom
p4818
aVtikamaliza
p4819
aVbcause
p4820
aVnever
p4821
aVmbiri
p4822
aVakapasiwa
p4823
aVhere
p4824
aVobvuta
p4825
aVkwambiri
p4826
aVmontez
p4827
aVmpetawayenga
p4828
aVlet
p4829
aVroyd
p4830
aVwebster
p4831
aVnyimba
p4832
aVchipata
p4833
aVmakungwa
p4834
aVnidala
p4835
aVkatete
p4836
aVsogoro
p4837
aVboy
p4838
aVnyelele
p4839
aVzone
p4840
aVhouses
p4841
aVkwachelanji
p4842
aVchimbilima
p4843
aVmtumpha
p4844
aVdaliso
p4845
aValepha
p4846
aVcargill
p4847
aVbon
p4848
aVamafunikira
p4849
aVkuika
p4850
aVdambalika
p4851
aVpakhlemalile
p4852
aVchritine
p4853
aVdoris
p4854
aVthats
p4855
aV0973347026
p4856
aVnyaphande
p4857
aVzilizonse
p4858
aV_amasokonedza
p4859
aVkumwa
p4860
aVmaufulu
p4861
aVafrica
p4862
aVsgt
p4863
aVjabesy
p4864
aVkawinga
p4865
aVnichosaledwa
p4866
aVwayekha
p4867
aVapo
p4868
aVafunika
p4869
aVkulekeza
p4870
aVngoma
p4871
aVkapichila
p4872
aVmarket
p4873
aViam
p4874
aVare
p4875
aVasikana
p4876
aVuse
p4877
aVfrancis
p4878
aVfrom
p4879
aVakafika
p4880
aVchakuti
p4881
aVaziba
p4882
aVkeijueno
p4883
aVaya
p4884
aVnkhoma
p4885
aVchfukwa
p4886
aVcho
p4887
aVsoko
p4888
aVwabwino
p4889
aVzemba
p4890
aVcalo
p4891
aVtaken
p4892
aV0965602939
p4893
aVkaizole
p4894
aVcare
p4895
aVmalawi
p4896
aVtikali
p4897
aVmore
p4898
aVlungu
p4899
aVbecouse
p4900
aVchadiza
p4901
aVfemales
p4902
aVzinthu
p4903
aVgwilisa
p4904
aVbrings
p4905
aVcarryng
p4906
aVefford
p4907
aVwopani
p4908
aVkunyamulilamo
p4909
aVhamweene
p4910
aVbgas
p4911
aVnkhata
p4912
aVchalala
p4913
aVmirriam
p4914
aVbaby
p4915
aVcases
p4916
aVakwanise
p4917
aVmust
p4918
aVtown
p4919
aVtisatile
p4920
aVkodi
p4921
aVthis
p4922
aVgabriel
p4923
aVkaluwa
p4924
aVkutumila
p4925
aVabsten
p4926
aVcan
p4927
aVlearn
p4928
aVmaking
p4929
aVmale
p4930
aVvilage
p4931
aVbdaka
p4932
aVlangson
p4933
aVdaka
p4934
aVmupaso
p4935
aVnkhuwa
p4936
aVgive
p4937
aVpakanthawi
p4938
aVlubinda
p4939
aVmankhala
p4940
aVchizongwe
p4941
aVpolluts
p4942
aVtapela
p4943
aVgabby
p4944
aVpamuzi
p4945
aVdavid
p4946
aVchif
p4947
aVmwale
p4948
aVmchewele
p4949
aVena
p4950
aVneeds
p4951
aVdemocracy
p4952
aVkusavera
p4953
aVpangabwele
p4954
aVafa
p4955
aVukawalala
p4956
aVbrian
p4957
aVdwa
p4958
aVbecoz
p4959
aVmumaola
p4960
aVzambanja
p4961
aVvirege
p4962
aVmasuzyo
p4963
aVnimfwa
p4964
aVbegs
p4965
aVamake
p4966
aVadis
p4967
aVbombwe
p4968
aVelizabeth
p4969
aVyovuta
p4970
aVzilizose
p4971
aVsouthern
p4972
aVlaston
p4973
aVtizisamala
p4974
aVcingacepese
p4975
aVayenera
p4976
aVmkazi
p4977
aVmag
p4978
aVaanthu
p4979
aVmai
p4980
aVpresident
p4981
aValovinala
p4982
aVamachoka
p4983
aVmkalema
p4984
aVroyce
p4985
aVchiet
p4986
aVndipo
p4987
aVemelda
p4988
aVwhiteson
p4989
aVeducation
p4990
aVkuchokera
p4991
aVgunda
p4992
aVkma
p4993
aVkoma
p4994
aVkhulika
p4995
aVsiyafuna
p4996
aVdavies
p4997
aVroad
p4998
aVkeeps
p4999
aVmange
p5000
aVdemocratic
p5001
aValibe
p5002
aVmwandila
p5003
aVpaziko
p5004
aVfor
p5005
aVkusamva
p5006
aVtimataya
p5007
aVhelp
p5008
aVukachedwa
p5009
aVmatildah
p5010
aVkupanga
p5011
aVsifumu
p5012
aVjabu
p5013
aVamacita
p5014
aVumafamw
p5015
aVndi
p5016
aVilibe
p5017
aVpaper
p5018
aVmumbi
p5019
aVmpanso
p5020
aVamamwalire
p5021
aVnotaya
p5022
aVmumba
p5023
aVoperative
p5024
aVminga
p5025
aVsakala
p5026
aVlimby
p5027
aVlesya
p5028
aVjim
p5029
aVtimathandizika
p5030
aVitani
p5031
aVpena
p5032
aVstephen
p5033
aVnthawi
p5034
aVtembo
p5035
aVchinunda
p5036
aVcompaund
p5037
aVmfuwe
p5038
aVthem
p5039
aVgood
p5040
aVmukazi
p5041
aVdam
p5042
aVbwino
p5043
aVkiller
p5044
aVephrem
p5045
aVnation
p5046
aVsaule
p5047
aVngatisiunapitemwamsangakuchipatala
p5048
aVphri
p5049
aVmoyenela
p5050
aVferguson
p5051
aVthey
p5052
aVhapen
p5053
aVnot
p5054
aVdimerits
p5055
aVchirwa
p5056
aVdown
p5057
aVkaole
p5058
aValex
p5059
aVrobbie
p5060
aVkomanso
p5061
aVjames
p5062
aVbimayele
p5063
aVmonsasamalira
p5064
aVkumbenjele
p5065
aVhospto
p5066
aVchimpondo
p5067
aVakulu
p5068
aVkulundazi
p5069
aVazipitiliza
p5070
aValiyense
p5071
aVnanyangwe
p5072
aVman
p5073
aVnimayopela
p5074
aVcropping
p5075
aVngati
p5076
aVluck
p5077
aVschemes
p5078
aVmadalitso
p5079
aVfobby
p5080
aVreduce
p5081
aVmugoza
p5082
aVmadzimawe
p5083
aVkana
p5084
aVyosalimba
p5085
aVkusalankhula
p5086
aVufulu
p5087
aVmaphunziro
p5088
aVonence
p5089
aVmbanja
p5090
aVyeas
p5091
aVkumwenda
p5092
aVour
p5093
aVgirl
p5094
aVubeleke
p5095
aVmatias
p5096
aVzumwanda
p5097
aVkuchipatala
p5098
aVkupaya
p5099
aVmsekera
p5100
aVchife
p5101
aVmotel
p5102
aVkupitiliza
p5103
aVnchito
p5104
aVincrease
p5105
aVbamacitilamo
p5106
aVmalaria_ndawa
p5107
aVzambiri
p5108
aVmanda
p5109
aVmabwe
p5110
aVmponda
p5111
aVkwagino
p5112
aVboloma
p5113
aVeary
p5114
aVbenjamin
p5115
aVficklin
p5116
aVmlenga
p5117
aVlawrence
p5118
aVtacedwa
p5119
aVmwape
p5120
aVchisomo
p5121
aVnyakutwa
p5122
aVfred
p5123
aVatsikana
p5124
aVcimaiwalika
p5125
aVshud
p5126
aVyaboma
p5127
aVukakwidwa
p5128
aVhelard
p5129
aVjairos
p5130
aVnishi
p5131
aVgodfrey
p5132
aVkumanja
p5133
aVronald
p5134
aVmshanga
p5135
aVelibe
p5136
aVatuwa
p5137
aVmwamuna
p5138
aVturn
p5139
aVnjekwa
p5140
aVbinwell
p5141
aVyess
p5142
aVkuno
p5143
aVise
p5144
aVaubasi
p5145
aVfrome
p5146
aVmwenda
p5147
aVplastics
p5148
aVono
p5149
aVakufa
p5150
aVundii
p5151
aVchasefu
p5152
aVbonface
p5153
aVwamung
p5154
aVchisenjere
p5155
aVnyirongo
p5156
aVmphande
p5157
aVakakhalitsa
p5158
aVmchinji
p5159
aVyer
p5160
aVndgne
p5161
aVgeorge
p5162
aVitezhi
p5163
aVkupha
p5164
aVmareliya
p5165
aVkapara
p5166
aVmwacdwa
p5167
aVmaleria
p5168
aVmsoro
p5169
aVsystem
p5170
aVcikuse
p5171
aVplastic
p5172
aVchifukwa
p5173
aVcathrin
p5174
aVoruala
p5175
aVimapaya
p5176
aVmaster
p5177
aVchanje
p5178
aVireen
p5179
aVplastix
p5180
aVjohn
p5181
aVamunthu
p5182
aVkwaoneka
p5183
aVakankhalisa
p5184
aVtinkhani
p5185
aVmiliasi
p5186
aValbert
p5187
aVsukhandiumoyo
p5188
aVjane
p5189
aVkaulembe
p5190
aVamagwila
p5191
aVwinanso
p5192
aVmasala
p5193
aVpaulamulilo
p5194
aVmalalia
p5195
aVthan
p5196
aVpopulation
p5197
aVmercy
p5198
aVscheme
p5199
aVreason
p5200
aVnyozani
p5201
aVktt
p5202
aVlazarous
p5203
aVroads
p5204
aVyouth
p5205
aVamafa
p5206
aVsolomon
p5207
aVmalama
p5208
aVchobvuta
p5209
aVtikonyamulila
p5210
aVnzeru
p5211
aVcountry
p5212
aVkazimule
p5213
aVtrisha
p5214
aVmwase
p5215
aVang
p5216
aVana
p5217
aVsam
p5218
aVchikomeni
p5219
aVboston
p5220
aVlulu
p5221
aVani
p5222
aVtendai
p5223
aVkuvuta
p5224
aVchamuthu
p5225
aVocepa
p5226
aVkuti
p5227
aVkanyanga
p5228
aVneed
p5229
aVyees
p5230
aVingwe
p5231
aVmnyeche
p5232
aVzagwa
p5233
aVukaitola
p5234
aV3umutiwa
p5235
aVboyd
p5236
aVngona
p5237
aVvge
p5238
aVmiti_adraida
p5239
aVchief
p5240
aVonse
p5241
aVyamapha
p5242
aVhigh
p5243
aVkaduku
p5244
aVtake
p5245
aVwhich
p5246
aVtikagwitsa
p5247
aVakakhalisa
p5248
aVdestroy
p5249
aVmis
p5250
aVchimdidi
p5251
aVbrngz
p5252
aVsurf
p5253
aVnomanga
p5254
aVchipalamba
p5255
aVshall
p5256
aVnyanje
p5257
aVkuyizelu
p5258
aVnyamulengula
p5259
aVpakhale
p5260
aVjst
p5261
aVkelly
p5262
aVsuzen
p5263
aVciwbolya
p5264
aVlokwima
p5265
aVmagwelo
p5266
aVnothing
p5267
aVdube
p5268
aVchipetuka
p5269
aVkawingwa
p5270
aVpetauke
p5271
aVmakwala
p5272
aVikhala
p5273
aVngulube
p5274
aVmalile
p5275
aVfier
p5276
aVcamp
p5277
aVsikabiri
p5278
aVdisease
p5279
aVmrs
p5280
aVpaulendo
p5281
aVmagodi
p5282
aVntchito
p5283
aVzingathandize
p5284
aVclean
p5285
aVpaliponse
p5286
aVndalama
p5287
aVpipo
p5288
aVmambwe
p5289
aVkumuchosapo
p5290
aVkauzu
p5291
aVmwanza
p5292
aVukapuma
p5293
aVpaul
p5294
aVmadzi
p5295
aVmzenje
p5296
aVshow
p5297
aVmafungausi
p5298
aVungamwe
p5299
aVcharles
p5300
aVchiparamba
p5301
aVzatha
p5302
aVmerit
p5303
aVeliphas
p5304
aVamakwanitsa
p5305
aVmadekeli
p5306
aVkupulumuka
p5307
aVtiya
p5308
aVchikungu
p5309
aVnaomi
p5310
aVcheaf
p5311
aVone
p5312
aVamatha
p5313
aVapollo
p5314
aVambiri
p5315
aVkufukamo
p5316
aVacicepele
p5317
aVmatenda
p5318
aVfeni
p5319
aV1tayakwatumuti
p5320
aVmpiri
p5321
aVgrace
p5322
aVlupande
p5323
aVmuyeso
p5324
aVesau
p5325
aVsipola
p5326
aVaywell
p5327
aVjoseph
p5328
aVmoses
p5329
aVnjira
p5330
aVmankhwala
p5331
aVchimankhala
p5332
aVsairi
p5333
aVmalungo
p5334
aVkukwatiliwa
p5335
aVcecilia
p5336
aVhiv
p5337
aVemmanuel
p5338
aVnyamtuma
p5339
aVsamuel
p5340
aVmukulu
p5341
aVpamudzi
p5342
aVpopasana
p5343
aVnjra
p5344
aVchristopher
p5345
aVmalungu
p5346
aVsili
p5347
aVpakagono
p5348
aVzmwe
p5349
aVareas
p5350
aVsankho
p5351
aVchasato
p5352
aVzimaletesa
p5353
aValiele
p5354
aVkupondeleza
p5355
aVkutsokoneza
p5356
aVambili
p5357
aVmtonga
p5358
aVbag
p5359
aVchikowa
p5360
aVshe
p5361
aVcleverson
p5362
aVnthongole
p5363
aVvikuta
p5364
aVvincent
p5365
aVview
p5366
aVuchuluka
p5367
aVmadam
p5368
aVkanga
p5369
aVarv
p5370
aVbenard
p5371
aVnyukwa
p5372
aVchipatala
p5373
aVsizifunika
p5374
aVpads
p5375
aVkupyolera
p5376
aVchamasongwe
p5377
aVsaulosi
p5378
aVkukonza
p5379
aVterms
p5380
aVfeligo
p5381
aVackras
p5382
aVmarraqe
p5383
aVzodwa
p5384
aVkunokupetauka
p5385
aVngawagwidwa
p5386
aVkutetha
p5387
aVolo
p5388
aVmshawa
p5389
aVasikanawo
p5390
aV2tabapolangawalwala
p5391
aVmakelen
p5392
aVchigaga
p5393
aVits
p5394
aVpaks
p5395
aVfuture
p5396
aVkusukulu
p5397
aVaction
p5398
aVchezela
p5399
aVmarriage
p5400
aVgaveni
p5401
aVsukulu
p5402
aVtsiku
p5403
aVnotice
p5404
aVmankhalala
p5405
aVelders
p5406
aVpali
p5407
aVcomp
p5408
aVyelani
p5409
aVmaleliya
p5410
aVfrackson
p5411
aVnkhu
p5412
aVmpaka
p5413
aVjoe
p5414
aVgreshus
p5415
aVchilombo
p5416
aVwth
p5417
aVchimpembe
p5418
aVbanja
p5419
aVmule
p5420
aVumoyo
p5421
aVazitikana
p5422
aVzakaria
p5423
aVangasunge
p5424
aVmonicas
p5425
aVvileg
p5426
aVjabson
p5427
aVmany
p5428
aVcoz
p5429
aVili
p5430
aVine
p5431
aVyakuti
p5432
aValot
p5433
aVboma
p5434
aVmazalen
p5435
aVtimathandizidwa
p5436
aVkupita
p5437
aVgrounds
p5438
aVkwa
p5439
aVand
p5440
aVbongo
p5441
aVthwala
p5442
aVchimate
p5443
aVamakhala
p5444
aVsky
p5445
aVothers
p5446
aVmusogoleli
p5447
aVcommunity
p5448
aVkey
p5449
aVyamuyaya
p5450
aVmwana
p5451
aVvakacani
p5452
aVninthenda
p5453
aVvillage
p5454
aVchandema
p5455
aVwaly
p5456
aVbvuto
p5457
aVakalibe
p5458
aVmangwe
p5459
aVdstrict
p5460
aVchifuka
p5461
aVfrm
p5462
aVyai
p5463
aVignitius
p5464
aVbasic
p5465
aVyoram
p5466
aVbenson
p5467
aVmary
p5468
aVkucita
p5469
aVvenders
p5470
aVlauwrence
p5471
aVnsadzu
p5472
aVnayo
p5473
aVndeni
p5474
aVamapha
p5475
aVakacedwakupita
p5476
aVlepu
p5477
aVkanyindula
p5478
aVfira
p5479
aVandrew
p5480
aVdavy
p5481
aVsiatwinda
p5482
aVndiye
p5483
aVvizmumba
p5484
aVnyangu
p5485
aVfuna
p5486
aVjosiyasi
p5487
aVndithandizo
p5488
aVraydol
p5489
aVkujenda
p5490
aVwadziko
p5491
aV20yrs
p5492
aVazayamba
p5493
aVgracious
p5494
aViye
p5495
aVasnankwime
p5496
aVkusebezesha
p5497
aVsucceese
p5498
aVmkopeka
p5499
aVmoyo
p5500
aVamene
p5501
aVkuzzindkira
p5502
aVkupena
p5503
aVmchenga
p5504
aVkucipangari
p5505
aVaim
p5506
aVtimafunika
p5507
aVgondar
p5508
aVmicheal
p5509
aVjebeckx
p5510
aVvuta
p5511
aVmakolo
p5512
aVsokoloku
p5513
aVedzi
p5514
aVipasa
p5515
aVcifukwa
p5516
aVmilonga
p5517
aVmabanz
p5518
aVipitilile
p5519
aVmupanene
p5520
aVmoth
p5521
aVmadzimoyo_chinjara
p5522
aVmalamulo
p5523
aVtinyamulilenge
p5524
aVnabvutika
p5525
aVcibvundula
p5526
aVnkowane
p5527
aVcant
p5528
aVkachakwala
p5529
aVmangwala
p5530
aVmtimba
p5531
aVmwenya
p5532
aVchifwa
p5533
aVkondwani
p5534
aVyakupha
p5535
aVbags
p5536
aVbaibe
p5537
aVskool
p5538
aVcovuta
p5539
aVvlge
p5540
aVdoctor
p5541
aVthings
p5542
aVmake
p5543
aVmsikana
p5544
aVmaka
p5545
aVkumwamba
p5546
aVpanthawi
p5547
aVsamvela
p5548
aVdamages
p5549
aVmasauso
p5550
aVtisavomeze
p5551
aVsamson
p5552
aVruth
p5553
aVmzibambo
p5554
aVsachita
p5555
aVokomela
p5556
aVsidzatha
p5557
aVannie
p5558
aVimasausa
p5559
aVkelvin
p5560
aVelemiya
p5561
aVav1
p5562
aVav2
p5563
aVkunhala
p5564
aVcipata
p5565
aVkazinkambani
p5566
aVmaumba
p5567
aVpenias
p5568
aVkhondowe
p5569
aVdine
p5570
aVprotected
p5571
aVnavutika
p5572
aVchembe
p5573
aVkamanga
p5574
aVfarm
p5575
aVoff
p5576
aVnibwino
p5577
aVsackson
p5578
aVulamuriro
p5579
aVumapola
p5580
aVkupambana
p5581
aVkusiyana
p5582
aVmathews
p5583
aVmchinzdale
p5584
aVmedson
p5585
aVbana
p5586
aVchikwa
p5587
aVzonse
p5588
aVwamgono
p5589
aVlyson
p5590
aVlemek
p5591
aVstores
p5592
aVkunyamuliramo
p5593
aVmphangwe
p5594
aVmsoni
p5595
aVnkhanga
p5596
aViyambenso
p5597
aVtingzittezere
p5598
aVyanje
p5599
aVumayenda
p5600
aVclinic
p5601
aVanthu
p5602
aVyrs
p5603
aVvulamkoko
p5604
aVnephtaly
p5605
aVyears
p5606
aVprovice
p5607
aVyes
p5608
aVnthwi
p5609
aVmsanga
p5610
aVchinjala
p5611
aVfamily
p5612
aVmanzi
p5613
aVmathias
p5614
aVesnat
p5615
aVpupu
p5616
aVwen
p5617
aVwel
p5618
aVkuletsa
p5619
aV4rm
p5620
aVlets
p5621
aVboard
p5622
aVlamulo
p5623
aVakatha
p5624
aVchungu
p5625
aVhas
p5626
aVechondaitina
p5627
aVmantha
p5628
aVkusiriza
p5629
aVmakwara
p5630
aVrecycling
p5631
aVibex
p5632
aVzulu
p5633
aVmaganizo
p5634
aVdnine
p5635
aVnikusinta
p5636
aVthupi
p5637
aVshanganani
p5638
aVmaulawo
p5639
aVsitali
p5640
aVpobeleka
p5641
aVbanda
p5642
aVlady
p5643
aVzimba
p5644
aVamon
p5645
aVsimukanga
p5646
aVpresdent
p5647
aVyopya
p5648
aValick
p5649
aVemma
p5650
aVnthambo
p5651
aVgift
p5652
aVfisheni
p5653
aVpatrick
p5654
aVkawala
p5655
aVukhwitsa
p5656
aVchristine
p5657
aVkuramurira
p5658
aVcofanka
p5659
aVochepekela
p5660
aVnichadya
p5661
aVcletus
p5662
aVkuciyewe
p5663
aVcomzy
p5664
aVmunthu
p5665
aVmnthu
p5666
aVimapyola
p5667
aVkuli
p5668
aVdevepmnt
p5669
aVthinkn
p5670
aVbecause
p5671
aVold
p5672
aVmphongwe
p5673
aVpafunika
p5674
aVeasy
p5675
aVpas
p5676
aVdead
p5677
aVpaitana
p5678
aVlipitilire
p5679
aVnyozan
p5680
aVguday
p5681
aVkhumbo
p5682
aVesaya
p5683
aVerick
p5684
aVmnthanzi
p5685
aVsimakhala
p5686
aVamathesa
p5687
aVbenango
p5688
aVemployment
p5689
aVmwamsanga
p5690
aVikwele
p5691
aVkapare
p5692
aVici
p5693
aVzozittezera
p5694
aVnayife
p5695
aVwozidarira
p5696
aVwanga
p5697
aVpet
p5698
aVmaralia
p5699
aVpathupi
p5700
aVzithu
p5701
aVambewe
p5702
aVsiyichilisidwa
p5703
aVndamukane
p5704
aVmphomwa
p5705
aVsitenja
p5706
aVnadzantalema
p5707
aVpamoyo
p5708
aVifa
p5709
aVsosten
p5710
aVrun
p5711
aVathu
p5712
aVbusiness
p5713
aVsoweto
p5714
aVisaac
p5715
aVmunga
p5716
aVmphondolo
p5717
aVkumpasala
p5718
aVnews
p5719
aVgilrs
p5720
aVvictoria
p5721
aVludanzi
p5722
aVbrighton
p5723
aVtimashoka
p5724
aVackim
p5725
aVnjobvu
p5726
aVmackson
p5727
aVnimaopa
p5728
aVnditsiku
p5729
aVmerwe
p5730
aVpovat
p5731
aVmagazine
p5732
aVusowakonyamulira
p5733
aVzaka
p5734
aVlundazi
p5735
aVkhomba
p5736
aVchibale
p5737
aVkugawana
p5738
aVmvula
p5739
aVtikwatiliwa
p5740
aVchimakula
p5741
aVanyau
p5742
aVakakhalisapo
p5743
aVaibs
p5744
aVchambawa
p5745
aVmaureen
p5746
aVmfuleni
p5747
aVndodo
p5748
aVimfa
p5749
aVtiriko
p5750
aVwithin
p5751
aVcilungamo
p5752
aVmkawile
p5753
aVukwimi
p5754
aVvery
p5755
aVlamtundu
p5756
aVfemale
p5757
aVsteven
p5758
aVburton
p5759
aVchulu
p5760
aVhumphreyzo
p5761
aVyour
p5762
aVngosa
p5763
aVtem
p5764
aVmozambique
p5765
aVkukwatiwa
p5766
aVafuna
p5767
aVbaggs
p5768
aVliona
p5769
aVarea
p5770
aVmataidwe
p5771
aVninaciona
p5772
aVkamphawi
p5773
aVwhy
p5774
aVchipeta
p5775
aVanderson
p5776
aVcornelious
p5777
aVakama
p5778
aVkucipatara
p5779
aVfeair
p5780
aVfer
p5781
aVhenry
p5782
aVmapepala
p5783
aVcabe
p5784
aVnchifukwa
p5785
aVkasangazi
p5786
aVlao
p5787
aVkalumanda
p5788
aVgort
p5789
aVmwamusanga
p5790
aVzagode
p5791
aVnyamphande
p5792
aVpamene
p5793
aVchimene
p5794
aVpaka
p5795
aVsucess
p5796
aVmagazi
p5797
aVrobert
p5798
aVmsg
p5799
aVpags
p5800
aVinachita
p5801
aVmchini
p5802
aVmafayo
p5803
aValakwisa
p5804
aVkukwatitsa
p5805
aVkuchipangali
p5806
aVopolesa
p5807
aVchitule
p5808
aVpansi
p5809
aVubeleki
p5810
aVpangakhale
p5811
aVnilamulo
p5812
aVreuben
p5813
aVtasala
p5814
aVmada
p5815
aVamathandiza
p5816
aVluasila
p5817
aVchagwira
p5818
aVportpher
p5819
aVjumbe
p5820
aVmphamvu
p5821
aVdirty
p5822
aVcathreen
p5823
aVbages
p5824
aVyakhwima
p5825
aVkunabvutika
p5826
aVmawanda
p5827
aVwina
p5828
aVmupata
p5829
aVimatua
p5830
aVzokomela
p5831
aVfukwa
p5832
aVtigwilns
p5833
aVnkhwewakhwewa
p5834
aVpandala
p5835
aVfelix
p5836
aVsaen
p5837
aVezekiel
p5838
aVaffodeble
p5839
aVkalito
p5840
aVsowet0
p5841
aVchigombe
p5842
aVeducated
p5843
aVmsimuko
p5844
aVkatundu
p5845
aVmisheck
p5846
aVmaiko
p5847
aVmbewe
p5848
aVtenga
p5849
aVeric
p5850
aVsugar
p5851
aVmeglina
p5852
aVsikavu
p5853
aVtari
p5854
aVpeter
p5855
aVphaniso
p5856
aVpre
p5857
aVcoutry
p5858
aVmankwala
p5859
aVkusiliza
p5860
aVmaleya
p5861
aVmthiransembe
p5862
aVamabvutika
p5863
aVfield
p5864
aVmisholo
p5865
aVchoyamba
p5866
aVquick
p5867
aVukhala
p5868
aVkills
p5869
aVsukhala
p5870
aVyou
p5871
aVyos
p5872
aVmunyukwa
p5873
aVmushe
p5874
aVmpezeni
p5875
aVkulowa
p5876
aVmonday
p5877
aValimon
p5878
aVcatheline
p5879
aVsteadman
p5880
aVpear
p5881
aVyalulani
p5882
aVbravado
p5883
aVyocepa
p5884
aVchance
p5885
aValaweko
p5886
aVchilowe
p5887
aVchris
p5888
aVchifi
p5889
aVkufikila
p5890
aVbcoz
p5891
aVcamala
p5892
aVkukwatilisa
p5893
aVland
p5894
aVchingakhale
p5895
aVassets
p5896
aVhome
p5897
aVcnda
p5898
aVmudziko
p5899
aVmayana
p5900
aVrule
p5901
aVtezhi
p5902
aVmwandafisi
p5903
aVcouse
p5904
aVamgaole
p5905
aVnelson
p5906
aVmngelezi
p5907
aVzambri
p5908
aVyaubereki
p5909
aVagnes
p5910
aVcpt
p5911
aVwaanthu
p5912
aVkamatete
p5913
aVcakuti
p5914
atp5915
Rp5916
sVChichewa
p5917
g2
((lp5918
Vblackson
p5919
aVkatimbira
p5920
aVtheyala
p5921
aVchipadela
p5922
aVmphika
p5923
aVmabvuto
p5924
aVuchebe
p5925
aVmwa
p5926
aVsadya
p5927
aVzilibwino
p5928
aVmatekenya
p5929
aVchawantha
p5930
aVsinoya
p5931
aVpamwambazi
p5932
aVidrisa
p5933
aVmabanja
p5934
aVschool
p5935
aVchikaiko
p5936
aVkambale
p5937
aVenock
p5938
aVwillam
p5939
aVlivasoni
p5940
aVaphunzitsi
p5941
aVkum
p5942
aVpetro
p5943
aVndine
p5944
aVpolandira
p5945
aVnew
p5946
aVnet
p5947
aVndiedzi
p5948
aVadzilemba
p5949
aVeunice
p5950
aVmamkhwala
p5951
aVnyimbo
p5952
aVedzi
p5953
aVasokoneze
p5954
aVmtenthera
p5955
aVfumbi
p5956
aVkulemba
p5957
aVake
p5958
aVnzokwana
p5959
aVamaphunzira
p5960
aVsukutha
p5961
aVafunika
p5962
aVchifuk
p5963
aVnjezela
p5964
aVamaiwo
p5965
aVgilime
p5966
aVamaiwa
p5967
aVthale1
p5968
aVchfukwa
p5969
aVstrike
p5970
aVadzakhala
p5971
aVndalama
p5972
aVmulakho
p5973
aVchikayi
p5974
aVnkk
p5975
aVakadatan
p5976
aVchifukwamumup
p5977
aVmtenje
p5978
aVerv
p5979
aVidakalibe
p5980
aVmwansambo
p5981
aVzabanja
p5982
aVhanifa
p5983
aVwang
p5984
aVgive
p5985
aVmankhala
p5986
aVamayitenga
p5987
aVsipofuni
p5988
aVena
p5989
aVkumchinji
p5990
aVsamaliza
p5991
aVloterolo
p5992
aVnyodo
p5993
aVchidule
p5994
aValetsedwe
p5995
aVndikumvomeleza
p5996
aVchibwe
p5997
aVkusuku
p5998
aVamayi
p5999
aVokha
p6000
aVposaganizira
p6001
aVtsono
p6002
aVpomwe
p6003
aVwina
p6004
aVapse
p6005
aVoffice
p6006
aVtiwana
p6007
aVkuwopa
p6008
aVkupanga
p6009
aVchinthu
p6010
aVbefore
p6011
aVlabisoni
p6012
aVchiwayo
p6013
aVapilile
p6014
aVamapha
p6015
aVnthawi
p6016
aVakoze
p6017
aVkapiri
p6018
aVmkumulakwira
p6019
aVkorambwe
p6020
aVkuchandulu
p6021
aVthey
p6022
aVnkoyenera
p6023
aVkachingwe
p6024
aVchirwa
p6025
aVinendaziwonakunokwanamarambanikuti
p6026
aVchombo
p6027
aValex
p6028
aVninnie
p6029
aVyochepa
p6030
aVnkhomphola
p6031
aVluck
p6032
aVdevelopment
p6033
aVmalangizo
p6034
aVallan
p6035
aVkamobzi
p6036
aVtrading
p6037
aVukwatitsa
p6038
aVchiwelewele
p6039
aVotengela
p6040
aVsms
p6041
aVgeorge
p6042
aVdaniel
p6043
aVmanda
p6044
aVumphawi
p6045
aVmalinga
p6046
aVstandard
p6047
aVkasambeni
p6048
aVanga
p6049
aVkugwira
p6050
aVotele
p6051
aVndizokwanila
p6052
aVyobereka
p6053
aVosati
p6054
aVkolimunga
p6055
aVfupa
p6056
aVprimary
p6057
aValipo
p6058
aVkupha
p6059
aVphelantuni
p6060
aVndizambiri
p6061
aVreuben
p6062
aVkuchoke
p6063
aVtoo
p6064
aVyoitenga
p6065
aVakudalitseni
p6066
aVmalonda
p6067
aVothamangira
p6068
aVsamawola
p6069
aVasamakhare
p6070
aVyoopsa
p6071
aVziri
p6072
aVluwisi
p6073
aVmozambiki
p6074
aVsolomon
p6075
aVowaphula
p6076
aVmkoko
p6077
aVchake
p6078
aVkingkukastom
p6079
aVzosezizimapha
p6080
aVapezeso
p6081
aVasapite
p6082
aVkayo
p6083
aVvge
p6084
aVzakwana
p6085
aVmajumbo
p6086
aVsangakwanitse
p6087
aVpemba
p6088
aVathakukupha
p6089
aVtym
p6090
aVazithandizira
p6091
aVkondwelani
p6092
aVcentres
p6093
aVchamlandu
p6094
aVndikuzindikira
p6095
aVakwatiwe
p6096
aVmaria
p6097
aVziribwino
p6098
aVsyrubus
p6099
aVangosiya
p6100
aVkalimu
p6101
aVakutha
p6102
aVvoting
p6103
aVakumawatuma
p6104
aVakaona
p6105
aVboma
p6106
aVikagwira
p6107
aVwachita
p6108
aVpachifukwa
p6109
aVamenewo
p6110
aVapitilizemaphuzilo
p6111
aVamenewa
p6112
aVpakuti
p6113
aVakuwonetsakuti
p6114
aVndikumuphwan
p6115
aVtsani
p6116
aVchristopher
p6117
aVnikwasakadziko
p6118
aVndikuti
p6119
aVndiyoopsa
p6120
aVyayitali
p6121
aVbay
p6122
aVamadzavutika
p6123
aVbag
p6124
aVban
p6125
aVautomatic
p6126
aVzosezo
p6127
aVchipatala
p6128
aVazindikira
p6129
aVakewo
p6130
aViri
p6131
aVloti
p6132
aVkumudzi
p6133
aVchomwe
p6134
aVkufa
p6135
aVmaleliya
p6136
aVtermz
p6137
aVkuchizika
p6138
aVapabajapo
p6139
aVazao
p6140
aVnews
p6141
aVreceived
p6142
aVaccident
p6143
aVmakolo
p6144
aVili
p6145
aVsadatiakathetsa
p6146
aVkalambule
p6147
aVsionse
p6148
aVkwa
p6149
aVmsampha
p6150
aVzaten
p6151
aVangel
p6152
aVndikukwatiwisa
p6153
aVfrm
p6154
aVchalewa
p6155
aVbingu
p6156
aVpovuta
p6157
aVnayo
p6158
aVchimphanje
p6159
aVnkhaza
p6160
aVchiutsi
p6161
aVmasilabasi
p6162
aVkwamawonga
p6163
aVmalungonso
p6164
aVubongo
p6165
aVchild
p6166
aVkuchipata
p6167
aVkuchepa
p6168
aVpakamwendo
p6169
aVatakhwima
p6170
aVasaleke
p6171
aVnowa
p6172
aVazikhalabe
p6173
aVvuto
p6174
aVmzoyenera
p6175
aVopalechoni
p6176
aVlamwanayo
p6177
aVnipabwino
p6178
aVkalembeni
p6179
aVsikubweza
p6180
aVsainet
p6181
aVamapanga
p6182
aVkwalobat
p6183
aVawiri
p6184
aVjiya
p6185
aVpangozi
p6186
aVkamanga
p6187
aVnibwino
p6188
aVndikuwonla
p6189
aVkulimbikira
p6190
aVnyasulu
p6191
aVthi
p6192
aVchinkhaka
p6193
aVkale
p6194
aVasinthe
p6195
aVyes
p6196
aVonse
p6197
aVheraufulu
p6198
aVndikuwo
p6199
aVmsanga
p6200
aVbetiasi
p6201
aVanyi
p6202
aVhas
p6203
aVosman
p6204
aVmayi
p6205
aVmwachangu
p6206
aVtembwe
p6207
aVmtalimanja
p6208
aVbanda
p6209
aVlezani
p6210
aValick
p6211
aVgift
p6212
aVkusinthasintha
p6213
aVkumalowa
p6214
aVpalibe
p6215
aVyowopsa
p6216
aVold
p6217
aVolo
p6218
aVborn
p6219
aVganizani
p6220
aVkukhala
p6221
aVkufika
p6222
aVmohara
p6223
aVfor
p6224
aVzotele
p6225
aVdickison
p6226
aVwanyura
p6227
aVadziko
p6228
aVoyembekezera
p6229
aVzilbah
p6230
aVsarah
p6231
aVkambakakuti
p6232
aVambiri
p6233
aVzosiyana
p6234
aVeliya
p6235
aVyachina
p6236
aV8yrs
p6237
aVzokudya
p6238
aVmthupi
p6239
aVhospital
p6240
aVmagazini
p6241
aVdyson
p6242
aVsergio
p6243
aVineyo
p6244
aVmwachumu
p6245
aVezara
p6246
aVchima
p6247
aVliwaladzi
p6248
aVdowa
p6249
aVchikhasu
p6250
aVwan
p6251
aVwam
p6252
aVmafupa
p6253
aVchidzuma
p6254
aVscondar
p6255
aVjoseph
p6256
aVjane
p6257
aVjana
p6258
aVkadongola
p6259
aVmpama
p6260
aVndondomeko
p6261
aVback
p6262
aVukwatiwitsa
p6263
aVwonjezani
p6264
aVadziotche
p6265
aVapitilize
p6266
aVkukochirila
p6267
aVzokwanira
p6268
aVazigulitsaso
p6269
aVamkhala
p6270
aVtitakalamba
p6271
aVasakwakwatiwe
p6272
aVndikupereka
p6273
aVzikuchulutsa
p6274
aVzabwino
p6275
aVkusintha
p6276
aVmlandu
p6277
aVrimbiri
p6278
aVndiyopsa
p6279
aVkuonjezela
p6280
aVsibwinokukwatiwa
p6281
aVchilango
p6282
aVzikomo
p6283
aVumakhala
p6284
aVnthema
p6285
aVakatentha
p6286
aVfather
p6287
aVmwatsoka
p6288
aVhellen
p6289
aVmunkhuti
p6290
aVkuonga
p6291
aVmdiye
p6292
aVamasenza
p6293
aVmaness
p6294
aVmazinga
p6295
aVdim
p6296
aVudzudzu
p6297
aVasasiye
p6298
aVmatola
p6299
aVteam
p6300
aVakuyenera
p6301
aVnzosiyilana
p6302
aVbola
p6303
aVuchepeko
p6304
aVkauma
p6305
aVatsogoleri
p6306
aVkwamveka
p6307
aVweniweni
p6308
aVmizeck
p6309
aVnyirenda
p6310
aVyomwe
p6311
aVakaphunzila
p6312
aVkumikundi
p6313
aVdalitso
p6314
aVgladys
p6315
aVndikumwalira
p6316
aValoni
p6317
aVkuthandiza
p6318
aVaphunzire
p6319
aVmulebo
p6320
aVsylabus
p6321
aVomulipila
p6322
aVtizipatsana
p6323
aVndizachimidzi
p6324
aVmaufulu
p6325
aVsiutha
p6326
aVnyomgan
p6327
aVamathandiza
p6328
aVambikli
p6329
aVayi
p6330
aVakathandize
p6331
aVaye
p6332
aVakhoza
p6333
aVuphela
p6334
aVntchisi
p6335
aVamachizika
p6336
aVakumva
p6337
aVzinthu
p6338
aVzaidi
p6339
aVayenela
p6340
aVmareriya
p6341
aVyakale
p6342
aVchazama
p6343
aViwowo
p6344
aVuli
p6345
aVpampawo
p6346
aVayiii
p6347
aVakwati
p6348
aVumabwala
p6349
aVndinkhondo
p6350
aVmcford
p6351
aVlowala
p6352
aVchikho
p6353
aVukaitenga
p6354
aVadzawathandize
p6355
aVpopeza
p6356
aVkusiya
p6357
aVinekoma
p6358
aVakakw
p6359
aVfatsani
p6360
aVwalomwe
p6361
aVmkazi
p6362
aVmai
p6363
aVman
p6364
aVndipo
p6365
aVnthanje
p6366
aVayambe
p6367
aVmtengabvumba
p6368
aVmatutu
p6369
aVbeliam
p6370
aVsumatha
p6371
aVkalanje
p6372
aValetse
p6373
aVzimenez
p6374
aVamalonjeza
p6375
aVutana
p6376
aVyears
p6377
aVmwayi
p6378
aVsavimbi
p6379
aVkafeleni
p6380
aViiii
p6381
aV16ryz
p6382
aVadzathandiza
p6383
aVmaik
p6384
aVwasakwatile
p6385
aVkasakula
p6386
aVmwake
p6387
aVbwino
p6388
aVkaiton
p6389
aVcholemela
p6390
aVmoyenela
p6391
aVnot
p6392
aVkuremera
p6393
aVmphanga
p6394
aVterm
p6395
aVnkhani
p6396
aVkomanso
p6397
aVjames
p6398
aVkwakapanga
p6399
aVmwanaangatani
p6400
aVkankhomba
p6401
aVmpofunika
p6402
aVpayekha
p6403
aVangadzakwatiwenaye
p6404
aV10485760
p6405
aVngati
p6406
aVchivuta
p6407
aVmmalawi
p6408
aVakanawathandiza
p6409
aVmamuna
p6410
aVzofuna
p6411
aVmseche
p6412
aVkhima
p6413
aVinternet
p6414
aVimavuta
p6415
aVndikusinthasintha
p6416
aVyosefe
p6417
aVwapeza
p6418
aVono
p6419
aVnyirongo
p6420
aVvoti
p6421
aVvote
p6422
aVstaniel
p6423
aViam
p6424
aVcity
p6425
aVndibwino
p6426
aVplastic
p6427
aValfred
p6428
aVmalisen
p6429
aVshawa
p6430
aVnidenja
p6431
aVndiopsa
p6432
aVkupewa
p6433
aVatalumidwa
p6434
aVnamoni
p6435
aVfuture
p6436
aVndereya
p6437
aVmkhota
p6438
aVamasikwano
p6439
aVand
p6440
aVana
p6441
aVzili
p6442
aVano
p6443
aVmatem
p6444
aVasakwatire
p6445
aVallen
p6446
aVnazi
p6447
aValesedwe
p6448
aVamayiwakewo
p6449
aVopsa
p6450
aVkuntchis
p6451
aVlovemore
p6452
aVamadziwazambili
p6453
aViwo
p6454
aVasakwatile
p6455
aValinawo
p6456
aVbeta
p6457
aVamayiwo
p6458
aVadilo
p6459
aVonjezera
p6460
aVmalugoniyowo
p6461
aVmrs
p6462
aVkalimila
p6463
aVntchito
p6464
aValiyese
p6465
aVshop
p6466
aVakuwaonawo
p6467
aVkawiri
p6468
aVlimaswa
p6469
aVbright
p6470
aVakhala
p6471
aVakhale
p6472
aVrobt
p6473
aVakonze
p6474
aVmaphuzilo
p6475
aVaphuzile
p6476
aVkusukuluko
p6477
aVonly
p6478
aVchiye
p6479
aVmuno
p6480
aVget
p6481
aVsamuel
p6482
aVkamwendo
p6483
aVsecondary
p6484
aVumbuli
p6485
aVahmad
p6486
aVsichitsika
p6487
aVkanthiti
p6488
aVchipumi
p6489
aVrabson
p6490
aVmngwangwa
p6491
aVeyeyo
p6492
aVasawatile
p6493
aVlne
p6494
aVuthe
p6495
aVthandizo
p6496
aVmwina
p6497
aVlumwira
p6498
aVenough
p6499
aVkusukulu
p6500
aVmfumu
p6501
aVsukulu
p6502
aVosamatelo
p6503
aVsiyana
p6504
aVnkho
p6505
aVkawili
p6506
aVsakudziw
p6507
aVkabuwe
p6508
aVamachitamanyazi
p6509
aVamong
p6510
aVkwaka
p6511
aVanthu
p6512
aVmakolowo
p6513
aVamoni
p6514
aVmtasaka
p6515
aVtikusowa
p6516
aVabdul
p6517
aVyila
p6518
aVsicho
p6519
aVnotgood
p6520
aVmanebal
p6521
aVwamasulidwa
p6522
aVsizigwirazana
p6523
aVgombe
p6524
aVwaku
p6525
aVwake
p6526
aVambuye
p6527
aVchikulumba
p6528
aVsafiana
p6529
aVamene
p6530
aVupita
p6531
aVndizakuthandizani
p6532
aVshida
p6533
aVndiyopanda
p6534
aVmulekeni
p6535
aVchilengedwe
p6536
aVkomasokamwedwekamankwala
p6537
aVcifukwa
p6538
aVndichakuti
p6539
aVkwamsakad
p6540
aVlevison
p6541
aVakamata
p6542
aVpau
p6543
aVarice
p6544
aVedwin
p6545
aVdasitani
p6546
aVmwanawamng
p6547
aVliti
p6548
aVangatailire
p6549
aVwawukulu
p6550
aVenandiena
p6551
aVelina
p6552
aVmankha
p6553
aVwekha
p6554
aVchifundo
p6555
aVmkuchepako
p6556
aVyesaya
p6557
aVmavuto
p6558
aVkenamu
p6559
aVzonse
p6560
aVumenewu
p6561
aVzakazo
p6562
aVlyson
p6563
aVdickson
p6564
aVnoah
p6565
aVzifukwa
p6566
aVkils
p6567
aVkuononga
p6568
aVjuwax
p6569
aVdeath
p6570
aValiwachipere
p6571
aVosaumiza
p6572
aVchakuti
p6573
aVrose
p6574
aVpatsogolo
p6575
aVmgubo
p6576
aVakaphunzira
p6577
aVndamene
p6578
aVzulu
p6579
aVama
p6580
aVkochepa
p6581
aVpsa
p6582
aVmuotcha
p6583
aVyelymiya
p6584
aVkunokwa
p6585
aVndioopsa
p6586
aVchididi
p6587
aVchristina
p6588
aVmararia
p6589
aVpatrick
p6590
aVcollective
p6591
aVudindo
p6592
aVkuli
p6593
aVzaumoyo
p6594
aVnthondo
p6595
aVesaya
p6596
aVzipangizo
p6597
aVakwatira
p6598
aVkwacha
p6599
aVakwatire
p6600
aVaziima
p6601
aVkwachi
p6602
aVngakhale
p6603
aVndakana
p6604
aVkawamba
p6605
aVbusiness
p6606
aVkugula
p6607
aVkasungu
p6608
aVfrancis
p6609
aVzaku
p6610
aVonop
p6611
aVvubwi
p6612
aVfeir
p6613
aVzake
p6614
aVtepa
p6615
aVzaka
p6616
aVkaulimbo
p6617
aVphiri
p6618
aVnyoni
p6619
aVndbwino
p6620
aVkalokwe
p6621
aVintervention
p6622
aVnyongani
p6623
aVher
p6624
aVintellengence
p6625
aVtambala
p6626
aVlilogwe
p6627
aVmosavuta
p6628
aVpabanja
p6629
aVofmaleria
p6630
aVchibwana
p6631
aVilipoyi
p6632
aVmkanthawi
p6633
aVzikuchuluka
p6634
aVwith
p6635
aVwiti
p6636
aVshumbanana
p6637
aVjonas
p6638
aVsanthe
p6639
aVzose
p6640
aVagree
p6641
aVyachiwiri
p6642
aVzokonda
p6643
aVzophunzitsira
p6644
aVgumba
p6645
aVgeneral
p6646
aVamathakutmagazia
p6647
aVsizinakhwime
p6648
aVsudziwika
p6649
aVmofulumira
p6650
aVkamende
p6651
aVyou
p6652
aVtimve
p6653
aVmeke
p6654
aVlamawa
p6655
aVkanyama
p6656
aVchilowa
p6657
aVkingsley
p6658
aVkuchipatala
p6659
aVatakhalanso
p6660
aVmumango
p6661
aVmasa
p6662
aVkulilongwe
p6663
aVangatani
p6664
aVchabe
p6665
aVlamakolo
p6666
aVsince
p6667
aVsch
p6668
aVali
p6669
aVasaletsedwe
p6670
aVnanga
p6671
aVasakwatiwa
p6672
aVmonjezi
p6673
aVndinda
p6674
aVmisale
p6675
aVsibwino
p6676
aVdisimasi
p6677
aVesther
p6678
aVmzuzu
p6679
aVkaponya
p6680
aVkasto
p6681
aVmzowopswa
p6682
aVimodzi
p6683
aVmzuzi
p6684
aVdictatorship
p6685
aVwawukholo
p6686
aV1akakhalitsa
p6687
aVsand
p6688
aVharry
p6689
aVsmall
p6690
aVanao
p6691
aVkonda
p6692
aVkumudulila
p6693
aVzero
p6694
aVmayeso
p6695
aVazikhalako
p6696
aVmwanao
p6697
aVchipangula
p6698
aVadikile
p6699
aVozon
p6700
aVmaleriya
p6701
aV2upatsana
p6702
aVkwambiri
p6703
aVsimayankho
p6704
aVmareria
p6705
aVmalaliya
p6706
aVsuthawa
p6707
aVoyenerera
p6708
aVjamson
p6709
aVabale
p6710
aVkumalizitsa
p6711
aVeya
p6712
aVakafike
p6713
aVakafika
p6714
aVsalola
p6715
aVsangachitire
p6716
aVayiasakwatiwe
p6717
aVstambuli
p6718
aVmore
p6719
aVkoma
p6720
aVthengo
p6721
aVkwasandulizen
p6722
aVadzipiliza
p6723
aVsintha
p6724
aVfiar
p6725
aVletala
p6726
aVkubweleza
p6727
aVsimbino
p6728
aVtiziona
p6729
aVmalo
p6730
aVvyovyo
p6731
aVzimaonga
p6732
aVsitandade
p6733
aVkuyamba
p6734
aVkwachimtanda
p6735
aVpatison
p6736
aVrather
p6737
aVazilandila
p6738
aVukawalala
p6739
aVukwatiwa
p6740
aVmaphuziro
p6741
aVkatangale
p6742
aVakupeza
p6743
aVwasakwatiwe
p6744
aVlivimb
p6745
aVwambi
p6746
aVkamwana
p6747
aVdziko
p6748
aVkumayadi
p6749
aVmalitino
p6750
aVamakonda
p6751
aVsteria
p6752
aVlokamiza
p6753
aVlozi
p6754
aVutha
p6755
aVomwa
p6756
aVakakamizidwe
p6757
aVliri
p6758
aVpena
p6759
aVsizokwanila
p6760
aVgood
p6761
aVkuwalimbikitsa
p6762
aVlaisi
p6763
aVkutelo
p6764
aVbabilas
p6765
aVbless
p6766
aVife
p6767
aVubwinowasukulu
p6768
aVkumalawiko
p6769
aVligwire
p6770
aVimatenga
p6771
aVmadalitso
p6772
aVtsogoro
p6773
aVakaphuzila
p6774
aVchateka
p6775
aVufulu
p6776
aVbenda
p6777
aVwachichepele
p6778
aVatazolowera
p6779
aVndimuthandiza
p6780
aVkanyindula
p6781
aVizi
p6782
aVrobert
p6783
aVasakwatiwe
p6784
aVizo
p6785
aVtsikana
p6786
aVzambiri
p6787
aVchifu
p6788
aVpakufunika
p6789
aVsamatha
p6790
aVkukwatiwitsa
p6791
aVbasi
p6792
aVwanawazaka
p6793
aVndizina
p6794
aVchibothera
p6795
aVmkofunika
p6796
aVazawo
p6797
aVasiye
p6798
aVayenera
p6799
aVsipoyenela
p6800
aVnindi
p6801
aVayi0
p6802
aValongosole
p6803
aVkomaso
p6804
aVmusah
p6805
aVesawo
p6806
aVnkhumba
p6807
aVfrywell
p6808
aVmanyengo
p6809
aVzikwama
p6810
aVmaleria
p6811
aVkausen
p6812
aVkod
p6813
aVndikwokwanirandine
p6814
aVamakol
p6815
aVnthondowa
p6816
aVakaphuzira
p6817
aVellina
p6818
aVrawo
p6819
aVstd
p6820
aVakuthandizilaso
p6821
aVkadango
p6822
aVbaki
p6823
aVasanapite
p6824
aVitheke
p6825
aVasanakhwime
p6826
aVakuopsa
p6827
aVjamison
p6828
aVapitirize
p6829
aVungu
p6830
aVtikufuna
p6831
aVbanja
p6832
aVkwamzikuola
p6833
aVhaward
p6834
aVkae
p6835
aVndioopsya
p6836
aVkangwere
p6837
aVeayala
p6838
aVchizewo
p6839
aVmkalasi
p6840
aVkas
p6841
aVyoyamba
p6842
aVkay
p6843
aVtsogolo
p6844
aVthundu
p6845
aVmarungu
p6846
aVmervi
p6847
aVwerengan
p6848
aVmarungo
p6849
aVanawo
p6850
aVmunthu
p6851
aVsakupha
p6852
aVamatha
p6853
aVagawa
p6854
aVmathiass
p6855
aVmoses
p6856
aVmankhwala
p6857
aVnikokwana
p6858
aVmalomo
p6859
aVkomakupewa
p6860
aVguileme
p6861
aVhiv
p6862
aVwavuta
p6863
aVzambia
p6864
aVluka
p6865
aVkayembe
p6866
aVbytes
p6867
aVadziwe
p6868
aVchibowa
p6869
aVndimatha
p6870
aVarv
p6871
aVkudzawathandiza
p6872
aVutsata
p6873
aVare
p6874
aVchikondi
p6875
aVntawi
p6876
aVatadziwa
p6877
aVamazolowela
p6878
aVsonifala
p6879
aVndiedz
p6880
aVtamakoswe
p6881
aVkokha
p6882
aVkhungwa
p6883
aVxool
p6884
aVkhumbo
p6885
aVlem
p6886
aVmpaka
p6887
aVchisati
p6888
aVthomani
p6889
aVnzindo
p6890
aVkupitiriza
p6891
aVmcdonald
p6892
aVkwapinda
p6893
aVkupita
p6894
aVchikwa
p6895
aVchichitike
p6896
aVakumamfa
p6897
aVkachikoti
p6898
aVlake
p6899
aVmwana
p6900
aVvillage
p6901
aVatatsekuka
p6902
aVkaphala
p6903
aVakaphunzir
p6904
aVakuvuta
p6905
aVwankaziyo
p6906
aVchifukwa
p6907
aVamacizika
p6908
aVkathu
p6909
aVndiye
p6910
aVbenga
p6911
aVmoreen
p6912
aVndiyo
p6913
aVsakadziko
p6914
aVtizitaya
p6915
aVmatandizo
p6916
aVkasengwa
p6917
aVinewatisoni
p6918
aVdominic
p6919
aVlenard
p6920
aVmalamulo
p6921
aVmoto
p6922
aVosatengapo
p6923
aVkufakumene
p6924
aVkumeneko
p6925
aVkwam
p6926
aVviiiage
p6927
aVshad
p6928
aVmaida
p6929
aVumphawiwo
p6930
aVndawambi
p6931
aVmasukulu
p6932
aVtilimo
p6933
aVearly
p6934
aVmaramura
p6935
aVadzayamba
p6936
aVkwalilanji
p6937
aVchawala
p6938
aVnamitete
p6939
aVakanakhala
p6940
aVakadzaphuzira
p6941
aVkusiyana
p6942
aVlomwe
p6943
aValibe
p6944
aVkuthesa
p6945
aVmpofuni
p6946
aVmlonyeni
p6947
aVukhoza
p6948
aVzituko
p6949
aVamaposa
p6950
aVprince
p6951
aVamakula
p6952
aValso
p6953
aVlamulo
p6954
aVmavu
p6955
aVndioos
p6956
aVbig
p6957
aVgama
p6958
aVndiyabwino
p6959
aVazasamalidwa
p6960
aVsemu
p6961
aVakumulakwila
p6962
aVyolonimo
p6963
aVmbuna
p6964
aVachance
p6965
aVprevantable
p6966
aVpali
p6967
aVpamawa
p6968
aVmwanayo
p6969
aVkuno
p6970
aVwasili
p6971
aVjoefrey
p6972
aVrun
p6973
aVgome
p6974
aVufe
p6975
aVndithu
p6976
aVfrom
p6977
aVibwelerenso
p6978
aVjnz
p6979
aVsikutha
p6980
aVkupeza
p6981
aVpochita
p6982
aVmoyowakeso
p6983
aVjimmy
p6984
aVimfa
p6985
aVmzandu
p6986
aVyelemiya
p6987
aVwamuna
p6988
aVamfumu
p6989
aVpamenepo
p6990
aVfast
p6991
aVcustom
p6992
aVchipsinjo
p6993
aVsyllabus
p6994
aVakuononga
p6995
aVlino
p6996
aVziko
p6997
aVukwati
p6998
aVjaulo
p6999
aVokulilapo
p7000
aVmalire
p7001
aVerick
p7002
aVsekelan
p7003
aVskulu
p7004
aVsamavuto
p7005
aVchan
p7006
aVsibwno
p7007
aVlimeneri
p7008
aVmazawa
p7009
aVanzake
p7010
aVchikhalire
p7011
aVyanga
p7012
aVmwadala
p7013
aVlucie
p7014
aVproblems
p7015
aVgomera
p7016
aVpottery
p7017
aVkadombe
p7018
aVlanu
p7019
aVnkhata
p7020
aVazilamula
p7021
aVamisi
p7022
aVchiyabwe
p7023
aVessau
p7024
aVedziumadya
p7025
aVeds
p7026
aVmbusa
p7027
aVakumaliza
p7028
aVkalekale
p7029
aVothetsela
p7030
aVchitukuko
p7031
aVatiwamavuto
p7032
aVsikuthetsa
p7033
aVassan
p7034
aVsalima
p7035
aVmatawale
p7036
aVtizitayila
p7037
aVzakazaka
p7038
aVkwakumkwala
p7039
aVzisanu
p7040
aVoopsa
p7041
aVmalalei
p7042
aVamabwela
p7043
aVthandiwe
p7044
aVjuma
p7045
aVmayadi
p7046
aVmwadaladala
p7047
aVapange
p7048
aVelisa
p7049
aVndikoyenela
p7050
aVkathyuka
p7051
aVchitipwa
p7052
aVkuchokela
p7053
aVmmalo
p7054
aVmtsindo
p7055
aVndizokwana
p7056
aVsaudziwa
p7057
aVkuchokera
p7058
aVcise
p7059
aVzidzawathandiza
p7060
aVhamees
p7061
aVothers
p7062
aVchipata
p7063
aVnazalene
p7064
aVonyamata
p7065
aVnzelu
p7066
aVmawa
p7067
aValomwe
p7068
aVmayard
p7069
aVmalepera
p7070
aVtongozala
p7071
aVakhazikitsidwe
p7072
aVmakhala
p7073
aVsanga
p7074
aVumavutitsa
p7075
aVmwasanga
p7076
aVzochuluka
p7077
aVnambuma
p7078
aVkochokera
p7079
aVubuli
p7080
aVkapili
p7081
aVkamasula
p7082
aVkuwonjezera
p7083
aVche
p7084
aVyochapidwa
p7085
aVyagwira
p7086
aVnthaka
p7087
aVukuchokela
p7088
aVmzofunika
p7089
aVmalawi
p7090
aVinfection
p7091
aVimafuna
p7092
aVndisilabasi
p7093
aVthis
p7094
aVgabriel
p7095
aVkwamalasa
p7096
aVlonjezo
p7097
aVpawl
p7098
aVkusitha
p7099
aVlabwino
p7100
aVmalundi
p7101
aVdzuka
p7102
aVabudukuno
p7103
aVkukwatiwit
p7104
aVhis
p7105
aVphirip
p7106
aVmwale
p7107
aVanzeru
p7108
aVsir
p7109
aVafa
p7110
aVokakamiza
p7111
aVafricano
p7112
aVazilamulira
p7113
aVwamamuna
p7114
aVkunokwampama
p7115
aVakozetsogolo
p7116
aVzokha
p7117
aValifosina
p7118
aVissa
p7119
aVmany
p7120
aVlines
p7121
aVchief
p7122
aVbuzness
p7123
aVchabwino
p7124
aVelia
p7125
aVamayamba
p7126
aVchilundu
p7127
aVndikupha
p7128
aVtiyamike
p7129
aVilibe
p7130
aVwawa
p7131
aVmutu
p7132
aVatsogoleli
p7133
aVwapezeka
p7134
aVhandwel
p7135
aVchongo
p7136
aVmusaletse
p7137
aVkuschool
p7138
aVakadziotche
p7139
aVozindikara
p7140
aVmasiku
p7141
aVchingolo
p7142
aVzomwe
p7143
aVamangopangitsakuti
p7144
aVkuopa
p7145
aVakule
p7146
aVmtekateka
p7147
aVndima
p7148
aVuniversity
p7149
aVfiya
p7150
aVangatigwire
p7151
aVpoyenerangatiaruyendetsabwinodzikoro
p7152
aVkazip
p7153
aVkafodyah
p7154
aVedzindiyovuta
p7155
aVlupiya
p7156
aVmaphunziro
p7157
aVamadziwa
p7158
aVbuma
p7159
aVameneyo
p7160
aVkukwatilitsa
p7161
aVkapalamula
p7162
aVamajaila
p7163
aVineofewa
p7164
aVarindichangu
p7165
aVmponda
p7166
aVayeseko
p7167
aVmbingwa
p7168
aVkuntchisi
p7169
aVkudwaritsa
p7170
aVkuphunzira
p7171
aVnditsogolo
p7172
aVdavid
p7173
aVludzi
p7174
aVumatha
p7175
aVhence
p7176
aVufiti
p7177
aVkugona
p7178
aVnsakambewa
p7179
aVmwenda
p7180
aVmtsogoro
p7181
aVasanakayambe
p7182
aVndiopunduka
p7183
aVmchinji
p7184
aVyine
p7185
aVnyathi
p7186
aVplastico
p7187
aVkadziotche
p7188
aVowopsya
p7189
aVpoti
p7190
aVmasawu
p7191
aVsekondale
p7192
aVmpata
p7193
aVkukapili
p7194
aVsilabasi
p7195
aVsazadzidya
p7196
aVkabudula
p7197
aVunicky
p7198
aVkunambuma
p7199
aVpamene
p7200
aVremember
p7201
aVkukhalanayo
p7202
aVbeg
p7203
aVamafa
p7204
aVbumphula
p7205
aVndimalungo
p7206
aVsec
p7207
aVmponela
p7208
aVredson
p7209
aVkuti
p7210
aVwatulukira
p7211
aVneed
p7212
aVkute
p7213
aVborder
p7214
aVpatuma
p7215
aVungwe
p7216
aVzawo
p7217
aVngono
p7218
aVisaki
p7219
aVkatenje
p7220
aVndikumuphela
p7221
aVmdziko
p7222
aVlinda
p7223
aV4lo
p7224
aVaziyankha
p7225
aVteremu
p7226
aVcentre
p7227
aVinejazeni
p7228
aVazilemba
p7229
aVadzayima
p7230
aVawo
p7231
aVeight
p7232
aVinde
p7233
aVkulozi
p7234
aVbrenda
p7235
aVwoti
p7236
aVperlas
p7237
aVkupulayimale
p7238
aVbrino
p7239
aVkatatu
p7240
aVknowledge
p7241
aVjay
p7242
aVmatenda
p7243
aVzitakha
p7244
aVmalamuro
p7245
aVshould
p7246
aViyiasakwatiwe
p7247
aVkumukakamiza
p7248
aVavad
p7249
aVelitayekhayo
p7250
aVopeza
p7251
aValekereni
p7252
aVmalungo
p7253
aVpulayimale
p7254
aVkumuphela
p7255
aVkawiya
p7256
aVchanika
p7257
aViyambileso
p7258
aVndimumphela
p7259
aVnyaza
p7260
aVkuima
p7261
aVshd
p7262
aVndikumuphera
p7263
aVakadali
p7264
aVkapena
p7265
aVamatayirira
p7266
aVzikutandira
p7267
aVzambili
p7268
aVcomputer
p7269
aVmtsikanayi
p7270
aVwawo
p7271
aVzikuwononga
p7272
aVwmana
p7273
aVbruno
p7274
aVzothandiza
p7275
aVolemba
p7276
aVmapeto
p7277
aVkusulu
p7278
aVnzokwanira
p7279
aVnpanvu
p7280
aVkunam
p7281
aVgondwe
p7282
aVjoe
p7283
aVkwanthema
p7284
aVchonde
p7285
aVlilongwe
p7286
aVkwamsaka
p7287
aVyalelo
p7288
aVamakhala
p7289
aVndikuwathandiza
p7290
aVmmene
p7291
aVsilvia
p7292
aVfelix
p7293
aVkwasan
p7294
aVbwabwa
p7295
aVmaxwel
p7296
aVboscor
p7297
aVtembo
p7298
aVmoyo
p7299
aVkungoku
p7300
aVnkhuku
p7301
aVwoopsa
p7302
aVkunsaru
p7303
aVyamakolo
p7304
aVpiloting
p7305
aVlayer
p7306
aVmaluwa
p7307
aVlumbani
p7308
aVzachuluka
p7309
aVvira
p7310
aVkondwani
p7311
aVangakhalenso
p7312
aVsikapitolo
p7313
aVkwachikho
p7314
aVchisamba
p7315
aVsalimba
p7316
aVsiotha
p7317
aVasakwitiwe
p7318
aVav1
p7319
aVav2
p7320
aVphili
p7321
aVfighting
p7322
aVmkokwanira
p7323
aVchasolo
p7324
aVkunokukasungu
p7325
aVpaul
p7326
aVmzake
p7327
aVamalowa
p7328
aVpatricia
p7329
aVkuletsa
p7330
aVusage
p7331
aVtaphuzitsa
p7332
aVfya
p7333
aVandso
p7334
aVmasanya
p7335
aVmaganizo
p7336
aVincreases
p7337
aVfalida
p7338
aVpresdent
p7339
aVatha
p7340
aVshephard
p7341
aVozone
p7342
aVaziyima
p7343
aVathu
p7344
aVjanuary
p7345
aVwilberforce
p7346
aVamadwala
p7347
aVchifukwatsongolorake
p7348
aVkuimanso
p7349
aVthokoza
p7350
aVkuchakudya
p7351
aVyandalama
p7352
aVwesly
p7353
aVshabani
p7354
aVyerymiya
p7355
aVavoid
p7356
aVketwell
p7357
aVzankhuli
p7358
aVlongwe
p7359
aVamafunanso
p7360
aVbelan
p7361
aVamavuto
p7362
aVkalasi
p7363
aVjangia
p7364
aVndi
p7365
aVpika
p7366
aVmangofuna
p7367
aVnde
p7368
aVchalera
p7369
aVblessings
p7370
aVmzokwana
p7371
aVchatepa
p7372
aVkukakamizidwa
p7373
aVowa
p7374
aVkholo
p7375
aVamava
p7376
aVkukwatiwa
p7377
aVtichepetse
p7378
aVamapeweka
p7379
aVlimafuni
p7380
aVmtosen
p7381
aVzosinthasintha
p7382
aVchinkhwiko
p7383
aVamavu
p7384
aVasanankhweme
p7385
aVdwino
p7386
aVthoko
p7387
aVkudowa
p7388
aVngatiwalephelawankulukuthet
p7389
aVakakhalathawi
p7390
aVbut
p7391
aVkamkwamba
p7392
aVlipatsidwe
p7393
aVwacisodzera
p7394
aVlevie
p7395
aVndale
p7396
aVkukasungu
p7397
aVsizaka
p7398
aVinu
p7399
aVamayio
p7400
aVamayii
p7401
aVsimaya
p7402
aVine
p7403
aVdzanja
p7404
aVeducation
p7405
aValindimankhwala
p7406
aVtailoring
p7407
aVadzadzidalire
p7408
aVlidzakhala
p7409
aVpalast
p7410
aVtchito
p7411
aVtithandize
p7412
aViyeyo
p7413
aVtsala
p7414
aVasinedy
p7415
aVnkosi
p7416
aVntanda
p7417
aVawonjezere
p7418
aVbcz
p7419
aVimani
p7420
aVbcs
p7421
atp7422
Rp7423
sVEnglish
p7424
g2
((lp7425
Vdrnkng
p7426
aVmny
p7427
aVbwalya
p7428
aVunavoidable
p7429
aVtodays
p7430
aVsch
p7431
aVcaused
p7432
aVmutilansembe
p7433
aVchild
p7434
aVshansha
p7435
aVleads
p7436
aVesy
p7437
aVsurdenly
p7438
aVfollow
p7439
aVpepabags
p7440
aVthole
p7441
aVchildren
p7442
aVcauses
p7443
aVtomorrows
p7444
aVnyirongo
p7445
aVmaseko
p7446
aVsimon
p7447
aVterms
p7448
aVyamasila
p7449
aVmiyoba
p7450
aVmabvuto
p7451
aVmusonda
p7452
aVyoung
p7453
aVenvironment
p7454
aVnkhoma
p7455
aVedward
p7456
aVhelps
p7457
aVunder
p7458
aVhealth
p7459
aVbukama
p7460
aVrepacation
p7461
aVdangarous
p7462
aVnyoni
p7463
aVwoman
p7464
aVwilison
p7465
aVpple
p7466
aVamboga
p7467
aVvery
p7468
aVkendo
p7469
aVfocus
p7470
aVmedicine
p7471
aVevery
p7472
aVjack
p7473
aVfall
p7474
aVaffect
p7475
aVnyore
p7476
aVschool
p7477
aVkeny
p7478
aVlevel
p7479
aVuncurable
p7480
aV_sometime
p7481
aVmarry
p7482
aVgul
p7483
aVgotia
p7484
aVchilekati
p7485
aVmgubudu
p7486
aVcipana
p7487
aVthough
p7488
aVcronical
p7489
aVkonda
p7490
aVsani
p7491
aVkisumu
p7492
aVprevent
p7493
aVtek
p7494
aVleaders
p7495
aVten
p7496
aVtired
p7497
aVmwanjawanthu
p7498
aVchipembe
p7499
aVdiscover
p7500
aVmwasemphangwe
p7501
aVsayg
p7502
aVbecovse
p7503
aVmedecen
p7504
aVfurther
p7505
aVnyirenda
p7506
aVdepression
p7507
aVvictor
p7508
aVeven
p7509
aVmariages
p7510
aVnyaguda
p7511
aVdeases
p7512
aVyamapha
p7513
aVrichard
p7514
aVilliness
p7515
aVsection
p7516
aVcontracted
p7517
aVmrkt
p7518
aVfavour
p7519
aVaccess
p7520
aVprodect
p7521
aVndine
p7522
aVabove
p7523
aVfrank
p7524
aVarvs
p7525
aVfalling
p7526
aVeverlasting
p7527
aV1010
p7528
aVsh0ud
p7529
aVbody
p7530
aVchisenjere
p7531
aV4rom
p7532
aVenviromnt
p7533
aVlitters
p7534
aVempower
p7535
aVloose
p7536
aVbecoz
p7537
aVmboya
p7538
aVwater
p7539
aVching
p7540
aVpoverty
p7541
aVgetrude
p7542
aVnyimba
p7543
aVchipata
p7544
aVtiserumo
p7545
aVmabuululu
p7546
aVmareria
p7547
aVirritating
p7548
aVkatete
p7549
aVacalling
p7550
aVboy
p7551
aVgashi
p7552
aVrsonel
p7553
aVreceive
p7554
aVreason
p7555
aVexperience
p7556
aVmosquito
p7557
aVmac
p7558
aVagatha
p7559
aVbording
p7560
aVadvantages
p7561
aVplastcs
p7562
aVmnkhanya
p7563
aVchanges
p7564
aVdoris
p7565
aVpatrick
p7566
aVjoshua
p7567
aVbiodegradable
p7568
aVkalino
p7569
aVuseful
p7570
aVfamily
p7571
aVkwaru
p7572
aVpresidents
p7573
aVmanage
p7574
aVreliase
p7575
aVdesease
p7576
aVrchn
p7577
aVplance
p7578
aVngoma
p7579
aVmphomwa
p7580
aVsarah
p7581
aVuse
p7582
aVfrom
p7583
aVtakes
p7584
aVotis
p7585
aVhospital
p7586
aVthre
p7587
aVtwn
p7588
aVfinally
p7589
aVbicoz
p7590
aVdnt
p7591
aVlive
p7592
aVcall
p7593
aVntchisi
p7594
aVmsg
p7595
aVgodfrey
p7596
aVsarat
p7597
aVuntil
p7598
aVtoday
p7599
aVelias
p7600
aVbringz
p7601
aVbecouse
p7602
aVchadiza
p7603
aVgotea
p7604
aVmalar
p7605
aVlemzmpongwe
p7606
aVevrydy
p7607
aVcarryng
p7608
aVlumdaz
p7609
aValida
p7610
aVaware
p7611
aVmosban
p7612
aVtested
p7613
aVkakiri
p7614
aVaccept
p7615
aVbaby
p7616
aVlumezi
p7617
aVdemerits
p7618
aVmoses
p7619
aVdey
p7620
aVmiddle
p7621
aVthis
p7622
aVgabriel
p7623
aVwork
p7624
aVmariage
p7625
aVaperson
p7626
aVsuffers
p7627
aVmalelia
p7628
aVmambo
p7629
aVabsten
p7630
aVgershom
p7631
aVcan
p7632
aVlearn
p7633
aVabandon
p7634
aVmale
p7635
aVvilage
p7636
aVnyambi0
p7637
aVmwaume
p7638
aVlangson
p7639
aVbeautiful
p7640
aVdaka
p7641
aVwant
p7642
aVgive
p7643
aVochilo
p7644
aVchip
p7645
aVdinho
p7646
aVsroly
p7647
aVhigh
p7648
aVclaimed
p7649
aVchanida
p7650
aVafta
p7651
aVsomething
p7652
aVcouncil
p7653
aVmzee
p7654
aVfadales
p7655
aVserial
p7656
aVmade
p7657
aVmwale
p7658
aVsakaka
p7659
aVgarden
p7660
aVstil
p7661
aVend
p7662
aVthing
p7663
aVprovide
p7664
aVspreads
p7665
aVrasta
p7666
aVdurng
p7667
aVayaki
p7668
aVhow
p7669
aVlameck
p7670
aVanswer
p7671
aVinstead
p7672
aVyagi
p7673
aVnya
p7674
aViribe
p7675
aVrepu
p7676
aVamake
p7677
aVmalaria
p7678
aVadis
p7679
aVmaternal
p7680
aVelizabeth
p7681
aVakiller
p7682
aVmay
p7683
aVstop
p7684
aVafter
p7685
aVspot
p7686
aVronald
p7687
aVhence
p7688
aVwrong
p7689
aVmkazi
p7690
aVblood
p7691
aVmag
p7692
aVjuve
p7693
aValovinala
p7694
aVchoice
p7695
aVman
p7696
aVprob
p7697
aVstress
p7698
aVshort
p7699
aVmaralia
p7700
aVthe
p7701
aVeats
p7702
aVthink
p7703
aVsinkamba
p7704
aVchief
p7705
aVmaintain
p7706
aVresponsibility
p7707
aVwitin
p7708
aVallow
p7709
aVafrican
p7710
aVmkangala
p7711
aVdemocratic
p7712
aVotieno
p7713
aVmake
p7714
aVdeposted
p7715
aVlonger
p7716
aVinfant
p7717
aVkazala
p7718
aVhelp
p7719
aVjosephine
p7720
aVdeveloped
p7721
aVover
p7722
aVjabu
p7723
aVlsk
p7724
aVkwamudhi
p7725
aVdoent
p7726
aVbrain
p7727
aVplastics
p7728
aVmumbi
p7729
aVdstrct
p7730
aVsuffer
p7731
aVits
p7732
aVminga
p7733
aVcomplicate
p7734
aVpolice
p7735
aVthank
p7736
aVdecay
p7737
aVpersonal
p7738
aVhygien
p7739
aVjim
p7740
aVlate
p7741
aVnyahera
p7742
aVmagoyo
p7743
aVgitich
p7744
aVthnk
p7745
aVcontractd
p7746
aVchinunda
p7747
aVvisiting
p7748
aVmfuwe
p7749
aVgoog
p7750
aVthen
p7751
aVthem
p7752
aVsomeone
p7753
aVaffected
p7754
aVprevented
p7755
aVdam
p7756
aVkiller
p7757
aVdai
p7758
aVnation
p7759
aVbreak
p7760
aVmulenga
p7761
aVbang
p7762
aVsections
p7763
aVmomo
p7764
aVeffects
p7765
aVdickson
p7766
aVcompound
p7767
aVnot
p7768
aVthev
p7769
aVgovt
p7770
aVsixteen
p7771
aVther
p7772
aVchirwa
p7773
aVinstructions
p7774
aVeasily
p7775
aVlindiwe
p7776
aV2cary
p7777
aVnyundo
p7778
aValways
p7779
aVmthilans
p7780
aVcountries
p7781
aVmchini
p7782
aVunlik
p7783
aV45yrs
p7784
aVherald
p7785
aVdid
p7786
aVbetty
p7787
aVdie
p7788
aVodhinane
p7789
aVsorondings
p7790
aVside
p7791
aVngati
p7792
aVmean
p7793
aVtiyese
p7794
aVmadzimawi
p7795
aVeveryone
p7796
aVfinancial
p7797
aVfired
p7798
aVcomzy
p7799
aVgeneration
p7800
aVhouse
p7801
aVhard
p7802
aVlupiya
p7803
aVallan
p7804
aVmadzimawe
p7805
aVsociety
p7806
aVmar
p7807
aVgating
p7808
aVyear
p7809
aVour
p7810
aVfredrick
p7811
aVbay
p7812
aVnow
p7813
aVchulu
p7814
aVout
p7815
aVmerii
p7816
aVmoth
p7817
aVabbygirl
p7818
aVkadundo
p7819
aVrobert
p7820
aVsince
p7821
aVlufeyo
p7822
aVenviroment
p7823
aVgeorge
p7824
aVfarm
p7825
aVjumbe
p7826
aVacumulated
p7827
aVmanda
p7828
aVpapers
p7829
aV18yrs
p7830
aVgot
p7831
aVwick
p7832
aVmnukwa
p7833
aVissue
p7834
aVeary
p7835
aVjael
p7836
aVquare
p7837
aVcary
p7838
aVanze
p7839
aVtimothy
p7840
aVundi
p7841
aVmwape
p7842
aVfred
p7843
aVshud
p7844
aVkilng
p7845
aVcurable
p7846
aVput
p7847
aV4rm
p7848
aVphilip
p7849
aVawelo
p7850
aVcured
p7851
aVher
p7852
aVoscar
p7853
aVrapheal
p7854
aVjust
p7855
aVarea
p7856
aVdays
p7857
aVnthani
p7858
aVkeep
p7859
aVturn
p7860
aVprobrem
p7861
aVdavis
p7862
aVawoman
p7863
aVaustin
p7864
aVkuno
p7865
aVfirst
p7866
aVnsimbo
p7867
aVstill
p7868
aValready
p7869
aVawise
p7870
aVjalango
p7871
aVstudent
p7872
aVbreakages
p7873
aVnumber
p7874
aVowned
p7875
aVone
p7876
aVmphande
p7877
aVdone
p7878
aVanother
p7879
aVcarry
p7880
aVimpossible
p7881
aVmessage
p7882
aVyourselt
p7883
aVakinyi
p7884
aViam
p7885
aVcity
p7886
aVstory
p7887
aVian
p7888
aVdump
p7889
aVdistrict
p7890
aVtogether
p7891
aVtop
p7892
aVmsoro
p7893
aVgirls
p7894
aVkod
p7895
aVplastic
p7896
aVtheir
p7897
aVbecause
p7898
aVkoz
p7899
aVmigth
p7900
aVtoo
p7901
aVdaet
p7902
aV_bag
p7903
aVshow
p7904
aVpersion
p7905
aVwhite
p7906
aVjohn
p7907
aVfinal
p7908
aVrigt
p7909
aVticito
p7910
aVlot
p7911
aVmostly
p7912
aVthat
p7913
aVmalaria_it
p7914
aVissues
p7915
aValbert
p7916
aVrefuse
p7917
aVtee
p7918
aVmarelia
p7919
aVmagodi
p7920
aVwhyson
p7921
aVnyabera
p7922
aVgovrmet
p7923
aVvllage
p7924
aVkupewa
p7925
aVcostantino
p7926
aVthan
p7927
aVnyar
p7928
aVpopulation
p7929
aVdistance
p7930
aVliter
p7931
aVgik
p7932
aVmatter
p7933
aVlisteners
p7934
aVfuture
p7935
aVmarriage
p7936
aVnze
p7937
aVwere
p7938
aVclen
p7939
aVcountry
p7940
aVtreated
p7941
aVcureable
p7942
aVand
p7943
aVchasanda
p7944
aVochieng
p7945
aVndambwe
p7946
aVdheks
p7947
aVgals
p7948
aVshoza
p7949
aVmind
p7950
aVarianda
p7951
aVodhiambo
p7952
aVnbc
p7953
aVsay
p7954
aVhave
p7955
aVokina
p7956
aVneed
p7957
aVseen
p7958
aVscool
p7959
aVborder
p7960
aVany
p7961
aVbeause
p7962
aVforced
p7963
aVwilson
p7964
aVmin
p7965
aVshawa
p7966
aVable
p7967
aVofficers
p7968
aVespecialy
p7969
aVlost
p7970
aValso
p7971
aVpower
p7972
aVlazzy
p7973
aVtake
p7974
aVibex
p7975
aVchizowe
p7976
aVwch
p7977
aVzimba
p7978
aVmartha
p7979
aVchioza
p7980
aVoriang
p7981
aVonyona
p7982
aVnani
p7983
aVoyugis
p7984
aVsure
p7985
aVpain
p7986
aVfidel
p7987
aVawendo
p7988
aVpark
p7989
aVneatly
p7990
aVkam
p7991
aVharmful
p7992
aVmost
p7993
aVvirus
p7994
aVchibolya
p7995
aVeight
p7996
aVasembo
p7997
aVadeadly
p7998
aVrhc
p7999
aVclass
p8000
aVpetauke
p8001
aVmaria
p8002
aVkabvuma
p8003
aVchidambo
p8004
aVforever
p8005
aVcause
p8006
aVdon
p8007
aVkwoyo
p8008
aVsamuel
p8009
aVmobile
p8010
aVcamp
p8011
aVinfections
p8012
aVdisease
p8013
aVmrs
p8014
aVwhich
p8015
aVpart
p8016
aVgreed
p8017
aVpst
p8018
aVpipo
p8019
aVmambwe
p8020
aVmwanza
p8021
aVthomas
p8022
aVenvaloment
p8023
aVshot
p8024
aVbrenda
p8025
aVcornel
p8026
aVhenry
p8027
aVplease
p8028
aVcharles
p8029
aVchiparamba
p8030
aVaply
p8031
aVmerit
p8032
aVending
p8033
aVdiscovered
p8034
aVjastin
p8035
aVplanning
p8036
aVkendu
p8037
aVchikungu
p8038
aVearth
p8039
aVfear
p8040
aVluya
p8041
aVafast
p8042
aVamojo
p8043
aVadzi
p8044
aVpartners
p8045
aVtouches
p8046
aVslow
p8047
aVknowledge
p8048
aVikonyowa
p8049
aVchato
p8050
aVdick
p8051
aVkapata
p8052
aVgrace
p8053
aVkamuchele
p8054
aVonly
p8055
aVgoing
p8056
aVmsoni
p8057
aVgideon
p8058
aVcircle
p8059
aVbusa
p8060
aVmike
p8061
aVmankhwala
p8062
aVbizaliel
p8063
aVregularly
p8064
aVhis
p8065
aVrose
p8066
aVhiv
p8067
aVget
p8068
aVluke
p8069
aVbanned
p8070
aVpunishiment
p8071
aVgainz
p8072
aVssp
p8073
aVnavutica
p8074
aVaim
p8075
aVkillers
p8076
aVfastest
p8077
aVmondo
p8078
aVsakala
p8079
aVnet
p8080
aVsecondary
p8081
aVenemy
p8082
aVmela
p8083
aVbar
p8084
aVtasala
p8085
aVregularlly
p8086
aVmishoro
p8087
aVmedicines
p8088
aVclinic
p8089
aVmorning
p8090
aVlolwe
p8091
aVbag
p8092
aVbad
p8093
aVsinaipezeko
p8094
aVshe
p8095
aVavoidable
p8096
aVisolation
p8097
aVpimo
p8098
aVvincent
p8099
aVjustus
p8100
aVwhere
p8101
aVwuod
p8102
aVhusband
p8103
aVgrag
p8104
aVmadam
p8105
aVarv
p8106
aVmaurice
p8107
aVbenard
p8108
aVoppotunity
p8109
aValorts
p8110
aVemeldah
p8111
aVfelisters
p8112
aVmerits
p8113
aVresult
p8114
aVall
p8115
aVmaka
p8116
aVstigma
p8117
aVthroug
p8118
aVincurable
p8119
aVyes
p8120
aVmarraqe
p8121
aVguided
p8122
aVsaid
p8123
aVmthunzi
p8124
aVthngs
p8125
aVdirtynes
p8126
aVsleepin
p8127
aVways
p8128
aVpattern
p8129
aVamale
p8130
aVmanjanja
p8131
aVmwandafisi
p8132
aVkanyinji
p8133
aVstate
p8134
aVwon
p8135
aVvarious
p8136
aVkacigamba
p8137
aVtransfered
p8138
aVuyoma
p8139
aVlaw
p8140
aVdiesease
p8141
aV10tyms
p8142
aVken
p8143
aVcariers
p8144
aVmen
p8145
aVjobs
p8146
aVaugust
p8147
aVquire
p8148
aVnature
p8149
aVjoy
p8150
aVvry
p8151
aVbix
p8152
aVmosquitos
p8153
aVignorance
p8154
aVdumisani
p8155
aVjakablack
p8156
aVspare
p8157
aVjoe
p8158
aVkey
p8159
aVtuo
p8160
aVwth
p8161
aVchachi
p8162
aVkilling
p8163
aVcome
p8164
aVposetive
p8165
aVreaction
p8166
aVcos
p8167
aVmedicen
p8168
aVmwanjawamthu
p8169
aVkazimule
p8170
aVtaking
p8171
aVcoz
p8172
aVcifukwa
p8173
aVmwelwa
p8174
aVcalled
p8175
aVjuliana
p8176
aVetc
p8177
aVmawanda
p8178
aValot
p8179
aVtaferansoni
p8180
aVboma
p8181
aVodhine
p8182
aVkafulafula
p8183
aVrodgers
p8184
aVcomes
p8185
aVkwa
p8186
aVamong
p8187
aVnyimsa
p8188
aVmedicene
p8189
aVatacked
p8190
aVsimple
p8191
aVshadrach
p8192
aVperiod
p8193
aVunsable
p8194
aVkasenengwa
p8195
aVmwana
p8196
aVhakuna
p8197
aVhope
p8198
aVvillage
p8199
aVmoreover
p8200
aVtrust
p8201
aVmission
p8202
aVkasamanda
p8203
aVhilled
p8204
aVbetter
p8205
aVpalace
p8206
aVzizo
p8207
aVasali
p8208
aVespected
p8209
aVokanja
p8210
aVsara
p8211
aVndeda
p8212
aVsitambuli
p8213
aVfrm
p8214
aVnawakwi
p8215
aS'swaraj'
p8216
aVslowly
p8217
aVchange
p8218
aVbasic
p8219
aVkatopola
p8220
aVonyinge
p8221
aVukugona
p8222
aVempty
p8223
aVwalter
p8224
aVchifukwa
p8225
aVgyacobo
p8226
aVlife
p8227
aVeducated
p8228
aVbaadaye
p8229
aVeasy
p8230
aVnkhanga
p8231
aVdrugs
p8232
aVmosna
p8233
aVote
p8234
aVmadega
p8235
aVafrica
p8236
aVmigare
p8237
aVlives
p8238
aVjosiyasi
p8239
aVpersonally
p8240
aVformer
p8241
aVthose
p8242
aVsaitoti
p8243
aVapplied
p8244
aVaaron
p8245
aVharms
p8246
aVlook
p8247
aVpresidency
p8248
aVinffected
p8249
aVthese
p8250
aVmamana
p8251
aVsex
p8252
aVempolyment
p8253
aVwill
p8254
aVwhile
p8255
aVgondar
p8256
aVserai
p8257
aVcannot
p8258
aVmany
p8259
aVaid
p8260
aVdominic
p8261
aVproperty
p8262
aVedzi
p8263
aVmicembo
p8264
aVsucces
p8265
aVveronica
p8266
aVcostly
p8267
aVthey
p8268
aVcell
p8269
aVungathe
p8270
aValmost
p8271
aVbrot
p8272
aVmlanzi
p8273
aVans
p8274
aVnon
p8275
aVchikando
p8276
aVharambee
p8277
aVcant
p8278
aVgood
p8279
aVmpongwe
p8280
aVkashobondo
p8281
aVthrowing
p8282
aVeveryday
p8283
aVnoah
p8284
aVbags
p8285
aVabele
p8286
aVmbewe
p8287
aVlet
p8288
aVkills
p8289
aVdesturb
p8290
aVluangwa
p8291
aVthings
p8292
aVsama
p8293
aVnandy
p8294
aVsomeones
p8295
aVsame
p8296
aVrubish
p8297
aVnavibe
p8298
aVgetrud
p8299
aVlikose
p8300
aVgirlchild
p8301
aVester
p8302
aVmayard
p8303
aVmiya
p8304
aVmayo
p8305
aVbarned
p8306
aVweek
p8307
aVnundwe
p8308
aVyakuph
p8309
aVramuro
p8310
aVdisadvantages
p8311
aVkelvin
p8312
aVextention
p8313
aVmalesi
p8314
aVyesterday
p8315
aVcarwash
p8316
aVlieta
p8317
aVsudenly
p8318
aVngwane
p8319
aVtwo
p8320
aVmwadzidzidzi
p8321
aVkil
p8322
aVsisters
p8323
aVtreatmemt
p8324
aVboth
p8325
aVkamanga
p8326
aVjaraa
p8327
aVkno
p8328
aVoff
p8329
aVbig
p8330
aVkuzemba
p8331
aVmakes
p8332
aVsiliver
p8333
aVwell
p8334
aVintended
p8335
aVkamine
p8336
aVcheep
p8337
aVperson
p8338
aVwithout
p8339
aVgreatest
p8340
aV2aids
p8341
aVmother
p8342
aVzatekorpe
p8343
aVcure
p8344
aVreintroduce
p8345
aVprevention
p8346
aVnjobvu
p8347
aVabstened
p8348
aVabstain
p8349
aVstores
p8350
aVmunet
p8351
aVmeleria
p8352
aVmphangwe
p8353
aVbeing
p8354
aVmoney
p8355
aVchisha
p8356
aVjusy
p8357
aVkacakwala
p8358
aVtime
p8359
aVshould
p8360
aVglita
p8361
aVkill
p8362
aVdieses
p8363
aVvulamkoko
p8364
aVdislve
p8365
aVyears
p8366
aValternative
p8367
aVagness
p8368
aVyet
p8369
aVdown
p8370
aVngizano
p8371
aVdespose
p8372
aVomondi
p8373
aVdeath
p8374
aValiech
p8375
aVmarrying
p8376
aVnjarazi
p8377
aVjosh
p8378
aVwen
p8379
aVkilled
p8380
aVreasons
p8381
aVlets
p8382
aVlabour
p8383
aVparents
p8384
aVhalo
p8385
aVinnocent
p8386
aVngos
p8387
aVhas
p8388
aVwil
p8389
aVuncureable
p8390
aVcaptivating
p8391
aVvlge
p8392
aVrnl
p8393
aVmos
p8394
aVprefer
p8395
aVmuseveni
p8396
aVdigital
p8397
aVbecuse
p8398
aVwhts
p8399
aVkillz
p8400
aVearly
p8401
aVtransmit
p8402
aVsuffering
p8403
aVphili
p8404
aVknow
p8405
aVbirth
p8406
aVdestroy
p8407
aVtich
p8408
aValex
p8409
aVbanda
p8410
aVlady
p8411
aVyou
p8412
aVbiodegradeble
p8413
aVomollo
p8414
aVmitunda
p8415
aVemma
p8416
aVlike
p8417
aVgift
p8418
aVmararia
p8419
aVinabamba
p8420
aVweni
p8421
aValice
p8422
aVfwana
p8423
aVparasite
p8424
aVcontinue
p8425
aVeither
p8426
aVjames
p8427
aVamos
p8428
aVmorover
p8429
aV4got
p8430
aVmbalame
p8431
aVdistroy
p8432
aVfulfil
p8433
aVenerst
p8434
aVold
p8435
aVmpiya
p8436
aVpeople
p8437
aVnthondo
p8438
aVmaleria
p8439
aVsome
p8440
aVkwasi
p8441
aVopose
p8442
aVborn
p8443
aVshowgrounds
p8444
aVkalulu
p8445
aVcomplete
p8446
aVproper
p8447
aVzambia
p8448
aVdevelopment
p8449
aVpeter
p8450
aVgona
p8451
aVinocent
p8452
aVfaster
p8453
aVcnt
p8454
aVprimary
p8455
aVtotaly
p8456
aVfor
p8457
aVbilly
p8458
aVavoid
p8459
aVmedi
p8460
aVzulu
p8461
aVper
p8462
aVmwinda
p8463
aVsystem
p8464
aVwhen
p8465
aVhofmeyr
p8466
aVleav
p8467
aVmbinga
p8468
aVwarned
p8469
aVokech
p8470
aVcompletly
p8471
aVleader
p8472
aVtabwelanso
p8473
aVnebat
p8474
aVobara
p8475
aVdestroys
p8476
aVknew
p8477
aVpatient
p8478
aVscientific
p8479
aVbusiness
p8480
aVproblems
p8481
aV2buy
p8482
aVlose
p8483
aVday
p8484
aVbeach
p8485
aVwho
p8486
aVpastors
p8487
aVmiti
p8488
aVcarol
p8489
aVfrancis
p8490
aVdead
p8491
aVpublishing
p8492
aVabout
p8493
aVchamanda
p8494
aVirresiponsible
p8495
aVmamboleo
p8496
aVworld
p8497
aVatiglinyi
p8498
aVmonths
p8499
aVyeas
p8500
aVchimwe_mwe
p8501
aVchison
p8502
aVmodester
p8503
aVfeir
p8504
aVjubeva
p8505
aVbecozi
p8506
aVlundazi
p8507
aVcrure
p8508
aVmuguze
p8509
aVmvula
p8510
aVjimmy
p8511
aVmwami
p8512
aVoniang
p8513
aVkatalira
p8514
aVnyamanga
p8515
aS'xyz'
p8516
aVwithin
p8517
aVprisca
p8518
aVharm
p8519
aVdue
p8520
aVukwimi
p8521
aVchronic
p8522
aVsos
p8523
aVackson
p8524
aVpaper
p8525
aVfemale
p8526
aVjoyce
p8527
aVobety
p8528
aVburdens
p8529
aVabel
p8530
aVquickly
p8531
aVyour
p8532
aVcompanz
p8533
aVknowngly
p8534
aVsoko
p8535
aVav1
p8536
aVspouse
p8537
aVibwera
p8538
aVbkoz
p8539
aVfew
p8540
aVmadecin
p8541
aVkawemba
p8542
aVsupport
p8543
aVdaniels
p8544
aVavailable
p8545
aVkunda
p8546
aVlong
p8547
aVcustom
p8548
aVchipeta
p8549
aVjoseph
p8550
aVinfected
p8551
aVbcoz
p8552
aVway
p8553
aVimmune
p8554
aVseveriano
p8555
aVpamene
p8556
aVwat
p8557
aVwas
p8558
aVpatricia
p8559
aVinfect
p8560
aVtreat
p8561
aValthou
p8562
aVatack
p8563
aVokoth
p8564
aVmwamusanga
p8565
aVenough
p8566
aVhavn
p8567
aVmanythings
p8568
aVbecoming
p8569
aVregard
p8570
aVshana
p8571
aVdelayed
p8572
aVbut
p8573
aVmagazi
p8574
aVuzapola
p8575
aVunknowngly
p8576
aVuncle
p8577
aVmigosi
p8578
aVmodwaro
p8579
aVstrugle
p8580
aVjoembee
p8581
aVapollo
p8582
aVwith
p8583
aVnever
p8584
aVagain
p8585
aVesther
p8586
aVdat
p8587
aVdowry
p8588
aVerick
p8589
aVplaces
p8590
aVnoon
p8591
aVmalalia
p8592
aVdangerous
p8593
aVwife
p8594
aVusing
p8595
aVopondi
p8596
aVsalome
p8597
aVsteven
p8598
aVknowing
p8599
aVbelow
p8600
aVgireya
p8601
aVmain
p8602
aVchiwe
p8603
aVmature
p8604
aVsum
p8605
aVinfants
p8606
aVproblem
p8607
aVmore
p8608
aVtrips
p8609
aVcare
p8610
aVsearious
p8611
aVstrongly
p8612
aVlungu
p8613
aVroney
p8614
aVmedication
p8615
aVplay
p8616
aVpin
p8617
aVdeaths
p8618
aVwich
p8619
aVmawere
p8620
aVcolege
p8621
aVnavuberg
p8622
aVgeneral
p8623
aVenable
p8624
aVright
p8625
aVsaffering
p8626
aVkayoo
p8627
aVaids
p8628
aVpits
p8629
aVeducation
p8630
aVrawi
p8631
aVgirl
p8632
aVare
p8633
aVdimerits
p8634
aVmaparos
p8635
aVmwase
p8636
aVcompared
p8637
aVfaithful
p8638
aVdont
p8639
aVdeadly
p8640
aVthere
p8641
aVthanks
p8642
aVtreatment
p8643
aVrepent
p8644
aVmwamsanga
p8645
aVtil
p8646
aVtim
p8647
aVtin
p8648
aVnico
p8649
aVsick
p8650
aVbrings
p8651
aVogaa
p8652
aVjefrey
p8653
aVdoyo
p8654
aVmwanakashi
p8655
aVpoor
p8656
aVloveness
p8657
aVlolo
p8658
aVkapirimphika
p8659
aVmonday
p8660
aVgetting
p8661
aVsenstisation
p8662
aVchiluzi
p8663
aVjune
p8664
aVyalulani
p8665
aVowich
p8666
aVokello
p8667
aValright
p8668
aVchance
p8669
aVksm
p8670
aVstigmatized
p8671
aVatieno
p8672
aVkinda
p8673
aVemusa
p8674
aVreplacement
p8675
aVfriends
p8676
aVdied
p8677
aVsource
p8678
aVago
p8679
aVgrief
p8680
aVafford
p8681
aVlead
p8682
aVssenkusu
p8683
aVpempho
p8684
aVomolo
p8685
aVage
p8686
aVmartin
p8687
aVkeepng
p8688
aVmayana
p8689
aVmsimuko
p8690
aVoriginal
p8691
aVhamful
p8692
aVjanamba
p8693
aVgal
p8694
aVstatus
p8695
aVnelson
p8696
aVback
p8697
aVgod
p8698
aVopiyo
p8699
aVserious
p8700
aVgeofrey
p8701
aVonce
p8702
aVhaving
p8703
aVdreams
p8704
aVngulube
p8705
atp8706
Rp8707
s.